Archive member included because of file (symbol)

d:/csgcc/bin/../lib/gcc/mips-sde-elf/4.3.2/../../../../mips-sde-elf/lib/el/sof\libstdc++.a(eh_personality.o)
                              obj/CPP_Demo.o (__gxx_personality_v0)
d:/csgcc/bin/../lib/gcc/mips-sde-elf/4.3.2/../../../../mips-sde-elf/lib/el/sof\libstdc++.a(eh_terminate.o)
                              d:/csgcc/bin/../lib/gcc/mips-sde-elf/4.3.2/../../../../mips-sde-elf/lib/el/sof\libstdc++.a(eh_personality.o) (__cxxabiv1::__terminate(void (*)()))
d:/csgcc/bin/../lib/gcc/mips-sde-elf/4.3.2/../../../../mips-sde-elf/lib/el/sof\libstdc++.a(eh_throw.o)
                              d:/csgcc/bin/../lib/gcc/mips-sde-elf/4.3.2/../../../../mips-sde-elf/lib/el/sof\libstdc++.a(eh_personality.o) (__cxa_rethrow)
d:/csgcc/bin/../lib/gcc/mips-sde-elf/4.3.2/../../../../mips-sde-elf/lib/el/sof\libstdc++.a(eh_unex_handler.o)
                              d:/csgcc/bin/../lib/gcc/mips-sde-elf/4.3.2/../../../../mips-sde-elf/lib/el/sof\libstdc++.a(eh_terminate.o) (__cxxabiv1::__unexpected_handler)
d:/csgcc/bin/../lib/gcc/mips-sde-elf/4.3.2/../../../../mips-sde-elf/lib/el/sof\libstdc++.a(eh_alloc.o)
                              d:/csgcc/bin/../lib/gcc/mips-sde-elf/4.3.2/../../../../mips-sde-elf/lib/el/sof\libstdc++.a(eh_throw.o) (__cxa_free_exception)
d:/csgcc/bin/../lib/gcc/mips-sde-elf/4.3.2/../../../../mips-sde-elf/lib/el/sof\libstdc++.a(eh_call.o)
                              d:/csgcc/bin/../lib/gcc/mips-sde-elf/4.3.2/../../../../mips-sde-elf/lib/el/sof\libstdc++.a(eh_personality.o) (__cxa_call_terminate)
d:/csgcc/bin/../lib/gcc/mips-sde-elf/4.3.2/../../../../mips-sde-elf/lib/el/sof\libstdc++.a(eh_catch.o)
                              d:/csgcc/bin/../lib/gcc/mips-sde-elf/4.3.2/../../../../mips-sde-elf/lib/el/sof\libstdc++.a(eh_personality.o) (__cxa_end_catch)
d:/csgcc/bin/../lib/gcc/mips-sde-elf/4.3.2/../../../../mips-sde-elf/lib/el/sof\libstdc++.a(eh_exception.o)
                              d:/csgcc/bin/../lib/gcc/mips-sde-elf/4.3.2/../../../../mips-sde-elf/lib/el/sof\libstdc++.a(eh_personality.o) (std::bad_exception::~bad_exception())
d:/csgcc/bin/../lib/gcc/mips-sde-elf/4.3.2/../../../../mips-sde-elf/lib/el/sof\libstdc++.a(eh_globals.o)
                              d:/csgcc/bin/../lib/gcc/mips-sde-elf/4.3.2/../../../../mips-sde-elf/lib/el/sof\libstdc++.a(eh_personality.o) (__cxa_get_globals_fast)
d:/csgcc/bin/../lib/gcc/mips-sde-elf/4.3.2/../../../../mips-sde-elf/lib/el/sof\libstdc++.a(eh_term_handler.o)
                              d:/csgcc/bin/../lib/gcc/mips-sde-elf/4.3.2/../../../../mips-sde-elf/lib/el/sof\libstdc++.a(eh_terminate.o) (__cxxabiv1::__terminate_handler)
d:/csgcc/bin/../lib/gcc/mips-sde-elf/4.3.2/../../../../mips-sde-elf/lib/el/sof\libstdc++.a(pure.o)
                              d:/csgcc/bin/../lib/gcc/mips-sde-elf/4.3.2/../../../../mips-sde-elf/lib/el/sof\libstdc++.a(eh_exception.o) (__cxa_pure_virtual)
d:/csgcc/bin/../lib/gcc/mips-sde-elf/4.3.2/../../../../mips-sde-elf/lib/el/sof\libstdc++.a(si_class_type_info.o)
                              d:/csgcc/bin/../lib/gcc/mips-sde-elf/4.3.2/../../../../mips-sde-elf/lib/el/sof\libstdc++.a(eh_exception.o) (vtable for __cxxabiv1::__si_class_type_info)
d:/csgcc/bin/../lib/gcc/mips-sde-elf/4.3.2/../../../../mips-sde-elf/lib/el/sof\libstdc++.a(tinfo.o)
                              d:/csgcc/bin/../lib/gcc/mips-sde-elf/4.3.2/../../../../mips-sde-elf/lib/el/sof\libstdc++.a(si_class_type_info.o) (std::type_info::__is_pointer_p() const)
d:/csgcc/bin/../lib/gcc/mips-sde-elf/4.3.2/../../../../mips-sde-elf/lib/el/sof\libstdc++.a(vterminate.o)
                              d:/csgcc/bin/../lib/gcc/mips-sde-elf/4.3.2/../../../../mips-sde-elf/lib/el/sof\libstdc++.a(eh_term_handler.o) (__gnu_cxx::__verbose_terminate_handler())
d:/csgcc/bin/../lib/gcc/mips-sde-elf/4.3.2/../../../../mips-sde-elf/lib/el/sof\libstdc++.a(cp-demangle.o)
                              d:/csgcc/bin/../lib/gcc/mips-sde-elf/4.3.2/../../../../mips-sde-elf/lib/el/sof\libstdc++.a(vterminate.o) (__cxa_demangle)
d:/csgcc/bin/../lib/gcc/mips-sde-elf/4.3.2/../../../../mips-sde-elf/lib/el/sof\libstdc++.a(class_type_info.o)
                              d:/csgcc/bin/../lib/gcc/mips-sde-elf/4.3.2/../../../../mips-sde-elf/lib/el/sof\libstdc++.a(si_class_type_info.o) (__cxxabiv1::__class_type_info::__do_catch(std::type_info const*, void**, unsigned int) const)
d:/csgcc/bin/../lib/gcc/mips-sde-elf/4.3.2/../../../../mips-sde-elf/lib/el/sof\libstdc++.a(del_op.o)
                              d:/csgcc/bin/../lib/gcc/mips-sde-elf/4.3.2/../../../../mips-sde-elf/lib/el/sof\libstdc++.a(eh_exception.o) (operator delete(void*))
d:/csgcc/bin/../lib/gcc/mips-sde-elf/4.3.2/../../../../mips-sde-elf/lib/el/sof\libstdc++.a(eh_type.o)
                              d:/csgcc/bin/../lib/gcc/mips-sde-elf/4.3.2/../../../../mips-sde-elf/lib/el/sof\libstdc++.a(vterminate.o) (__cxa_current_exception_type)
d:/csgcc/bin/../lib/gcc/mips-sde-elf/4.3.2/el/sof\libgcc.a(unwind-dw2.o)
                              d:/csgcc/bin/../lib/gcc/mips-sde-elf/4.3.2/../../../../mips-sde-elf/lib/el/sof\libstdc++.a(eh_personality.o) (_Unwind_GetIPInfo)
d:/csgcc/bin/../lib/gcc/mips-sde-elf/4.3.2/el/sof\libgcc.a(unwind-dw2-fde.o)
                              d:/csgcc/bin/../lib/gcc/mips-sde-elf/4.3.2/el/sof\libgcc.a(unwind-dw2.o) (_Unwind_Find_FDE)
d:/csgcc/bin/../lib/gcc/mips-sde-elf/4.3.2/../../../../mips-sde-elf/lib/el/sof\libc.a(lib_a-abort.o)
                              d:/csgcc/bin/../lib/gcc/mips-sde-elf/4.3.2/../../../../mips-sde-elf/lib/el/sof\libstdc++.a(eh_personality.o) (abort)
d:/csgcc/bin/../lib/gcc/mips-sde-elf/4.3.2/../../../../mips-sde-elf/lib/el/sof\libc.a(lib_a-ctime.o)
                              obj/CPP_Demo.o (ctime)
d:/csgcc/bin/../lib/gcc/mips-sde-elf/4.3.2/../../../../mips-sde-elf/lib/el/sof\libc.a(lib_a-fputc.o)
                              d:/csgcc/bin/../lib/gcc/mips-sde-elf/4.3.2/../../../../mips-sde-elf/lib/el/sof\libstdc++.a(vterminate.o) (fputc)
d:/csgcc/bin/../lib/gcc/mips-sde-elf/4.3.2/../../../../mips-sde-elf/lib/el/sof\libc.a(lib_a-fputs.o)
                              d:/csgcc/bin/../lib/gcc/mips-sde-elf/4.3.2/../../../../mips-sde-elf/lib/el/sof\libstdc++.a(vterminate.o) (fputs)
d:/csgcc/bin/../lib/gcc/mips-sde-elf/4.3.2/../../../../mips-sde-elf/lib/el/sof\libc.a(lib_a-fvwrite.o)
                              d:/csgcc/bin/../lib/gcc/mips-sde-elf/4.3.2/../../../../mips-sde-elf/lib/el/sof\libc.a(lib_a-fputs.o) (__sfvwrite_r)
d:/csgcc/bin/../lib/gcc/mips-sde-elf/4.3.2/../../../../mips-sde-elf/lib/el/sof\libc.a(lib_a-impure.o)
                              d:/csgcc/bin/../lib/gcc/mips-sde-elf/4.3.2/../../../../mips-sde-elf/lib/el/sof\libstdc++.a(vterminate.o) (_impure_ptr)
d:/csgcc/bin/../lib/gcc/mips-sde-elf/4.3.2/../../../../mips-sde-elf/lib/el/sof\libc.a(lib_a-lcltime.o)
                              d:/csgcc/bin/../lib/gcc/mips-sde-elf/4.3.2/../../../../mips-sde-elf/lib/el/sof\libc.a(lib_a-ctime.o) (localtime)
d:/csgcc/bin/../lib/gcc/mips-sde-elf/4.3.2/../../../../mips-sde-elf/lib/el/sof\libc.a(lib_a-lcltime_r.o)
                              d:/csgcc/bin/../lib/gcc/mips-sde-elf/4.3.2/../../../../mips-sde-elf/lib/el/sof\libc.a(lib_a-lcltime.o) (localtime_r)
d:/csgcc/bin/../lib/gcc/mips-sde-elf/4.3.2/../../../../mips-sde-elf/lib/el/sof\libc.a(lib_a-malloc.o)
                              d:/csgcc/bin/../lib/gcc/mips-sde-elf/4.3.2/../../../../mips-sde-elf/lib/el/sof\libstdc++.a(eh_alloc.o) (free)
d:/csgcc/bin/../lib/gcc/mips-sde-elf/4.3.2/../../../../mips-sde-elf/lib/el/sof\libc.a(lib_a-mallocr.o)
                              d:/csgcc/bin/../lib/gcc/mips-sde-elf/4.3.2/../../../../mips-sde-elf/lib/el/sof\libc.a(lib_a-fvwrite.o) (_malloc_r)
d:/csgcc/bin/../lib/gcc/mips-sde-elf/4.3.2/../../../../mips-sde-elf/lib/el/sof\libc.a(lib_a-memchr.o)
                              d:/csgcc/bin/../lib/gcc/mips-sde-elf/4.3.2/../../../../mips-sde-elf/lib/el/sof\libc.a(lib_a-fvwrite.o) (memchr)
d:/csgcc/bin/../lib/gcc/mips-sde-elf/4.3.2/../../../../mips-sde-elf/lib/el/sof\libc.a(lib_a-memcmp.o)
                              d:/csgcc/bin/../lib/gcc/mips-sde-elf/4.3.2/../../../../mips-sde-elf/lib/el/sof\libstdc++.a(cp-demangle.o) (memcmp)
d:/csgcc/bin/../lib/gcc/mips-sde-elf/4.3.2/../../../../mips-sde-elf/lib/el/sof\libc.a(lib_a-memcpy.o)
                              d:/csgcc/bin/../lib/gcc/mips-sde-elf/4.3.2/../../../../mips-sde-elf/lib/el/sof\libstdc++.a(cp-demangle.o) (memcpy)
d:/csgcc/bin/../lib/gcc/mips-sde-elf/4.3.2/../../../../mips-sde-elf/lib/el/sof\libc.a(lib_a-memmove.o)
                              d:/csgcc/bin/../lib/gcc/mips-sde-elf/4.3.2/../../../../mips-sde-elf/lib/el/sof\libc.a(lib_a-fvwrite.o) (memmove)
d:/csgcc/bin/../lib/gcc/mips-sde-elf/4.3.2/../../../../mips-sde-elf/lib/el/sof\libc.a(lib_a-memset.o)
                              d:/csgcc/bin/../lib/gcc/mips-sde-elf/4.3.2/../../../../mips-sde-elf/lib/el/sof\libstdc++.a(eh_alloc.o) (memset)
d:/csgcc/bin/../lib/gcc/mips-sde-elf/4.3.2/../../../../mips-sde-elf/lib/el/sof\libc.a(lib_a-mktm_r.o)
                              d:/csgcc/bin/../lib/gcc/mips-sde-elf/4.3.2/../../../../mips-sde-elf/lib/el/sof\libc.a(lib_a-lcltime_r.o) (_mktm_r)
d:/csgcc/bin/../lib/gcc/mips-sde-elf/4.3.2/../../../../mips-sde-elf/lib/el/sof\libc.a(lib_a-mlock.o)
                              d:/csgcc/bin/../lib/gcc/mips-sde-elf/4.3.2/../../../../mips-sde-elf/lib/el/sof\libc.a(lib_a-mallocr.o) (__malloc_lock)
d:/csgcc/bin/../lib/gcc/mips-sde-elf/4.3.2/../../../../mips-sde-elf/lib/el/sof\libc.a(lib_a-printf.o)
                              obj/CPP_Demo.o (printf)
d:/csgcc/bin/../lib/gcc/mips-sde-elf/4.3.2/../../../../mips-sde-elf/lib/el/sof\libc.a(lib_a-putc.o)
                              d:/csgcc/bin/../lib/gcc/mips-sde-elf/4.3.2/../../../../mips-sde-elf/lib/el/sof\libc.a(lib_a-fputc.o) (_putc_r)
d:/csgcc/bin/../lib/gcc/mips-sde-elf/4.3.2/../../../../mips-sde-elf/lib/el/sof\libc.a(lib_a-realloc.o)
                              d:/csgcc/bin/../lib/gcc/mips-sde-elf/4.3.2/../../../../mips-sde-elf/lib/el/sof\libstdc++.a(cp-demangle.o) (realloc)
d:/csgcc/bin/../lib/gcc/mips-sde-elf/4.3.2/../../../../mips-sde-elf/lib/el/sof\libc.a(lib_a-reallocr.o)
                              d:/csgcc/bin/../lib/gcc/mips-sde-elf/4.3.2/../../../../mips-sde-elf/lib/el/sof\libc.a(lib_a-fvwrite.o) (_realloc_r)
d:/csgcc/bin/../lib/gcc/mips-sde-elf/4.3.2/../../../../mips-sde-elf/lib/el/sof\libc.a(lib_a-sbrkr.o)
                              d:/csgcc/bin/../lib/gcc/mips-sde-elf/4.3.2/../../../../mips-sde-elf/lib/el/sof\libc.a(lib_a-mallocr.o) (_sbrk_r)
d:/csgcc/bin/../lib/gcc/mips-sde-elf/4.3.2/../../../../mips-sde-elf/lib/el/sof\libc.a(lib_a-signal.o)
                              d:/csgcc/bin/../lib/gcc/mips-sde-elf/4.3.2/../../../../mips-sde-elf/lib/el/sof\libc.a(lib_a-abort.o) (raise)
d:/csgcc/bin/../lib/gcc/mips-sde-elf/4.3.2/../../../../mips-sde-elf/lib/el/sof\libc.a(lib_a-signalr.o)
                              d:/csgcc/bin/../lib/gcc/mips-sde-elf/4.3.2/../../../../mips-sde-elf/lib/el/sof\libc.a(lib_a-signal.o) (_getpid_r)
d:/csgcc/bin/../lib/gcc/mips-sde-elf/4.3.2/../../../../mips-sde-elf/lib/el/sof\libc.a(lib_a-strcmp.o)
                              d:/csgcc/bin/../lib/gcc/mips-sde-elf/4.3.2/../../../../mips-sde-elf/lib/el/sof\libstdc++.a(cp-demangle.o) (strcmp)
d:/csgcc/bin/../lib/gcc/mips-sde-elf/4.3.2/../../../../mips-sde-elf/lib/el/sof\libc.a(lib_a-strcpy.o)
                              d:/csgcc/bin/../lib/gcc/mips-sde-elf/4.3.2/../../../../mips-sde-elf/lib/el/sof\libstdc++.a(cp-demangle.o) (strcpy)
d:/csgcc/bin/../lib/gcc/mips-sde-elf/4.3.2/../../../../mips-sde-elf/lib/el/sof\libc.a(lib_a-strlen.o)
                              d:/csgcc/bin/../lib/gcc/mips-sde-elf/4.3.2/../../../../mips-sde-elf/lib/el/sof\libstdc++.a(cp-demangle.o) (strlen)
d:/csgcc/bin/../lib/gcc/mips-sde-elf/4.3.2/../../../../mips-sde-elf/lib/el/sof\libc.a(lib_a-strncmp.o)
                              d:/csgcc/bin/../lib/gcc/mips-sde-elf/4.3.2/../../../../mips-sde-elf/lib/el/sof\libstdc++.a(cp-demangle.o) (strncmp)
d:/csgcc/bin/../lib/gcc/mips-sde-elf/4.3.2/../../../../mips-sde-elf/lib/el/sof\libc.a(lib_a-tzvars.o)
                              d:/csgcc/bin/../lib/gcc/mips-sde-elf/4.3.2/../../../../mips-sde-elf/lib/el/sof\libc.a(lib_a-mktm_r.o) (_daylight)
d:/csgcc/bin/../lib/gcc/mips-sde-elf/4.3.2/../../../../mips-sde-elf/lib/el/sof\libc.a(lib_a-vfprintf.o)
                              d:/csgcc/bin/../lib/gcc/mips-sde-elf/4.3.2/../../../../mips-sde-elf/lib/el/sof\libc.a(lib_a-printf.o) (_vfprintf_r)
d:/csgcc/bin/../lib/gcc/mips-sde-elf/4.3.2/../../../../mips-sde-elf/lib/el/sof\libc.a(lib_a-wbuf.o)
                              d:/csgcc/bin/../lib/gcc/mips-sde-elf/4.3.2/../../../../mips-sde-elf/lib/el/sof\libc.a(lib_a-putc.o) (__swbuf_r)
d:/csgcc/bin/../lib/gcc/mips-sde-elf/4.3.2/../../../../mips-sde-elf/lib/el/sof\libc.a(lib_a-wsetup.o)
                              d:/csgcc/bin/../lib/gcc/mips-sde-elf/4.3.2/../../../../mips-sde-elf/lib/el/sof\libc.a(lib_a-fvwrite.o) (__swsetup_r)
d:/csgcc/bin/../lib/gcc/mips-sde-elf/4.3.2/../../../../mips-sde-elf/lib/el/sof\libc.a(lib_a-asctime.o)
                              d:/csgcc/bin/../lib/gcc/mips-sde-elf/4.3.2/../../../../mips-sde-elf/lib/el/sof\libc.a(lib_a-ctime.o) (asctime)
d:/csgcc/bin/../lib/gcc/mips-sde-elf/4.3.2/../../../../mips-sde-elf/lib/el/sof\libc.a(lib_a-asctime_r.o)
                              d:/csgcc/bin/../lib/gcc/mips-sde-elf/4.3.2/../../../../mips-sde-elf/lib/el/sof\libc.a(lib_a-asctime.o) (asctime_r)
d:/csgcc/bin/../lib/gcc/mips-sde-elf/4.3.2/../../../../mips-sde-elf/lib/el/sof\libc.a(lib_a-dtoa.o)
                              d:/csgcc/bin/../lib/gcc/mips-sde-elf/4.3.2/../../../../mips-sde-elf/lib/el/sof\libc.a(lib_a-vfprintf.o) (_dtoa_r)
d:/csgcc/bin/../lib/gcc/mips-sde-elf/4.3.2/../../../../mips-sde-elf/lib/el/sof\libc.a(lib_a-fflush.o)
                              d:/csgcc/bin/../lib/gcc/mips-sde-elf/4.3.2/../../../../mips-sde-elf/lib/el/sof\libc.a(lib_a-fvwrite.o) (_fflush_r)
d:/csgcc/bin/../lib/gcc/mips-sde-elf/4.3.2/../../../../mips-sde-elf/lib/el/sof\libc.a(lib_a-findfp.o)
                              d:/csgcc/bin/../lib/gcc/mips-sde-elf/4.3.2/../../../../mips-sde-elf/lib/el/sof\libc.a(lib_a-fputc.o) (__sinit)
d:/csgcc/bin/../lib/gcc/mips-sde-elf/4.3.2/../../../../mips-sde-elf/lib/el/sof\libc.a(lib_a-freer.o)
                              d:/csgcc/bin/../lib/gcc/mips-sde-elf/4.3.2/../../../../mips-sde-elf/lib/el/sof\libc.a(lib_a-fvwrite.o) (_free_r)
d:/csgcc/bin/../lib/gcc/mips-sde-elf/4.3.2/../../../../mips-sde-elf/lib/el/sof\libc.a(lib_a-fwalk.o)
                              d:/csgcc/bin/../lib/gcc/mips-sde-elf/4.3.2/../../../../mips-sde-elf/lib/el/sof\libc.a(lib_a-findfp.o) (_fwalk)
d:/csgcc/bin/../lib/gcc/mips-sde-elf/4.3.2/../../../../mips-sde-elf/lib/el/sof\libc.a(lib_a-gettzinfo.o)
                              d:/csgcc/bin/../lib/gcc/mips-sde-elf/4.3.2/../../../../mips-sde-elf/lib/el/sof\libc.a(lib_a-mktm_r.o) (__gettzinfo)
d:/csgcc/bin/../lib/gcc/mips-sde-elf/4.3.2/../../../../mips-sde-elf/lib/el/sof\libc.a(lib_a-locale.o)
                              d:/csgcc/bin/../lib/gcc/mips-sde-elf/4.3.2/../../../../mips-sde-elf/lib/el/sof\libc.a(lib_a-vfprintf.o) (_localeconv_r)
d:/csgcc/bin/../lib/gcc/mips-sde-elf/4.3.2/../../../../mips-sde-elf/lib/el/sof\libc.a(lib_a-makebuf.o)
                              d:/csgcc/bin/../lib/gcc/mips-sde-elf/4.3.2/../../../../mips-sde-elf/lib/el/sof\libc.a(lib_a-wsetup.o) (__smakebuf_r)
d:/csgcc/bin/../lib/gcc/mips-sde-elf/4.3.2/../../../../mips-sde-elf/lib/el/sof\libc.a(lib_a-mprec.o)
                              d:/csgcc/bin/../lib/gcc/mips-sde-elf/4.3.2/../../../../mips-sde-elf/lib/el/sof\libc.a(lib_a-dtoa.o) (_Bfree)
d:/csgcc/bin/../lib/gcc/mips-sde-elf/4.3.2/../../../../mips-sde-elf/lib/el/sof\libc.a(lib_a-reent.o)
                              d:/csgcc/bin/../lib/gcc/mips-sde-elf/4.3.2/../../../../mips-sde-elf/lib/el/sof\libc.a(lib_a-sbrkr.o) (errno)
d:/csgcc/bin/../lib/gcc/mips-sde-elf/4.3.2/../../../../mips-sde-elf/lib/el/sof\libc.a(lib_a-s_isinfd.o)
                              d:/csgcc/bin/../lib/gcc/mips-sde-elf/4.3.2/../../../../mips-sde-elf/lib/el/sof\libc.a(lib_a-vfprintf.o) (__isinfd)
d:/csgcc/bin/../lib/gcc/mips-sde-elf/4.3.2/../../../../mips-sde-elf/lib/el/sof\libc.a(lib_a-s_isnand.o)
                              d:/csgcc/bin/../lib/gcc/mips-sde-elf/4.3.2/../../../../mips-sde-elf/lib/el/sof\libc.a(lib_a-vfprintf.o) (__isnand)
d:/csgcc/bin/../lib/gcc/mips-sde-elf/4.3.2/../../../../mips-sde-elf/lib/el/sof\libc.a(lib_a-sprintf.o)
                              d:/csgcc/bin/../lib/gcc/mips-sde-elf/4.3.2/../../../../mips-sde-elf/lib/el/sof\libc.a(lib_a-asctime_r.o) (sprintf)
d:/csgcc/bin/../lib/gcc/mips-sde-elf/4.3.2/../../../../mips-sde-elf/lib/el/sof\libc.a(lib_a-stdio.o)
                              d:/csgcc/bin/../lib/gcc/mips-sde-elf/4.3.2/../../../../mips-sde-elf/lib/el/sof\libc.a(lib_a-findfp.o) (__sclose)
d:/csgcc/bin/../lib/gcc/mips-sde-elf/4.3.2/../../../../mips-sde-elf/lib/el/sof\libc.a(lib_a-writer.o)
                              d:/csgcc/bin/../lib/gcc/mips-sde-elf/4.3.2/../../../../mips-sde-elf/lib/el/sof\libc.a(lib_a-stdio.o) (_write_r)
d:/csgcc/bin/../lib/gcc/mips-sde-elf/4.3.2/../../../../mips-sde-elf/lib/el/sof\libc.a(lib_a-callocr.o)
                              d:/csgcc/bin/../lib/gcc/mips-sde-elf/4.3.2/../../../../mips-sde-elf/lib/el/sof\libc.a(lib_a-mprec.o) (_calloc_r)
d:/csgcc/bin/../lib/gcc/mips-sde-elf/4.3.2/../../../../mips-sde-elf/lib/el/sof\libc.a(lib_a-closer.o)
                              d:/csgcc/bin/../lib/gcc/mips-sde-elf/4.3.2/../../../../mips-sde-elf/lib/el/sof\libc.a(lib_a-stdio.o) (_close_r)
d:/csgcc/bin/../lib/gcc/mips-sde-elf/4.3.2/../../../../mips-sde-elf/lib/el/sof\libc.a(lib_a-fclose.o)
                              d:/csgcc/bin/../lib/gcc/mips-sde-elf/4.3.2/../../../../mips-sde-elf/lib/el/sof\libc.a(lib_a-findfp.o) (fclose)
d:/csgcc/bin/../lib/gcc/mips-sde-elf/4.3.2/../../../../mips-sde-elf/lib/el/sof\libc.a(lib_a-fstatr.o)
                              d:/csgcc/bin/../lib/gcc/mips-sde-elf/4.3.2/../../../../mips-sde-elf/lib/el/sof\libc.a(lib_a-makebuf.o) (_fstat_r)
d:/csgcc/bin/../lib/gcc/mips-sde-elf/4.3.2/../../../../mips-sde-elf/lib/el/sof\libc.a(lib_a-isattyr.o)
                              d:/csgcc/bin/../lib/gcc/mips-sde-elf/4.3.2/../../../../mips-sde-elf/lib/el/sof\libc.a(lib_a-makebuf.o) (_isatty_r)
d:/csgcc/bin/../lib/gcc/mips-sde-elf/4.3.2/../../../../mips-sde-elf/lib/el/sof\libc.a(lib_a-lseekr.o)
                              d:/csgcc/bin/../lib/gcc/mips-sde-elf/4.3.2/../../../../mips-sde-elf/lib/el/sof\libc.a(lib_a-stdio.o) (_lseek_r)
d:/csgcc/bin/../lib/gcc/mips-sde-elf/4.3.2/../../../../mips-sde-elf/lib/el/sof\libc.a(lib_a-readr.o)
                              d:/csgcc/bin/../lib/gcc/mips-sde-elf/4.3.2/../../../../mips-sde-elf/lib/el/sof\libc.a(lib_a-stdio.o) (_read_r)
d:/csgcc/bin/../lib/gcc/mips-sde-elf/4.3.2/../../../../mips-sde-elf/lib/el/sof\libcs3.a(start_c.o)
                              (__cs3_start_c)
d:/csgcc/bin/../lib/gcc/mips-sde-elf/4.3.2/../../../../mips-sde-elf/lib/el/sof\libcs3unhosted.a(unhosted-_exit.o)
                              d:/csgcc/bin/../lib/gcc/mips-sde-elf/4.3.2/../../../../mips-sde-elf/lib/el/sof\libc.a(lib_a-abort.o) (_exit)
d:/csgcc/bin/../lib/gcc/mips-sde-elf/4.3.2/../../../../mips-sde-elf/lib/el/sof\libcs3unhosted.a(unhosted-close.o)
                              obj/DRN_PIC32MX_CS_glue.o (close)
d:/csgcc/bin/../lib/gcc/mips-sde-elf/4.3.2/../../../../mips-sde-elf/lib/el/sof\libcs3unhosted.a(unhosted-fstat.o)
                              d:/csgcc/bin/../lib/gcc/mips-sde-elf/4.3.2/../../../../mips-sde-elf/lib/el/sof\libc.a(lib_a-fstatr.o) (fstat)
d:/csgcc/bin/../lib/gcc/mips-sde-elf/4.3.2/../../../../mips-sde-elf/lib/el/sof\libcs3unhosted.a(unhosted-isatty.o)
                              d:/csgcc/bin/../lib/gcc/mips-sde-elf/4.3.2/../../../../mips-sde-elf/lib/el/sof\libc.a(lib_a-isattyr.o) (isatty)
d:/csgcc/bin/../lib/gcc/mips-sde-elf/4.3.2/../../../../mips-sde-elf/lib/el/sof\libcs3unhosted.a(unhosted-lseek.o)
                              d:/csgcc/bin/../lib/gcc/mips-sde-elf/4.3.2/../../../../mips-sde-elf/lib/el/sof\libc.a(lib_a-lseekr.o) (lseek)
d:/csgcc/bin/../lib/gcc/mips-sde-elf/4.3.2/../../../../mips-sde-elf/lib/el/sof\libcs3unhosted.a(unhosted-open.o)
                              obj/DRN_PIC32MX_CS_glue.o (open)
d:/csgcc/bin/../lib/gcc/mips-sde-elf/4.3.2/../../../../mips-sde-elf/lib/el/sof\libcs3unhosted.a(unhosted-sbrk.o)
                              d:/csgcc/bin/../lib/gcc/mips-sde-elf/4.3.2/../../../../mips-sde-elf/lib/el/sof\libc.a(lib_a-sbrkr.o) (sbrk)
d:/csgcc/bin/../lib/gcc/mips-sde-elf/4.3.2/../../../../mips-sde-elf/lib/el/sof\libcs3unhosted.a(unhosted-getpid.o)
                              d:/csgcc/bin/../lib/gcc/mips-sde-elf/4.3.2/../../../../mips-sde-elf/lib/el/sof\libc.a(lib_a-signalr.o) (getpid)
d:/csgcc/bin/../lib/gcc/mips-sde-elf/4.3.2/../../../../mips-sde-elf/lib/el/sof\libcs3unhosted.a(unhosted-kill.o)
                              d:/csgcc/bin/../lib/gcc/mips-sde-elf/4.3.2/../../../../mips-sde-elf/lib/el/sof\libc.a(lib_a-signalr.o) (kill)
d:/csgcc/bin/../lib/gcc/mips-sde-elf/4.3.2/../../../../mips-sde-elf/lib/el/sof\libcs3unhosted.a(start.o)
                              (_start)
d:/csgcc/bin/../lib/gcc/mips-sde-elf/4.3.2/el/sof\libgcc.a(_udivdi3.o)
                              d:/csgcc/bin/../lib/gcc/mips-sde-elf/4.3.2/../../../../mips-sde-elf/lib/el/sof\libc.a(lib_a-vfprintf.o) (__udivdi3)
d:/csgcc/bin/../lib/gcc/mips-sde-elf/4.3.2/el/sof\libgcc.a(_umoddi3.o)
                              d:/csgcc/bin/../lib/gcc/mips-sde-elf/4.3.2/../../../../mips-sde-elf/lib/el/sof\libc.a(lib_a-vfprintf.o) (__umoddi3)
d:/csgcc/bin/../lib/gcc/mips-sde-elf/4.3.2/el/sof\libgcc.a(_addsub_df.o)
                              d:/csgcc/bin/../lib/gcc/mips-sde-elf/4.3.2/../../../../mips-sde-elf/lib/el/sof\libc.a(lib_a-dtoa.o) (__subdf3)
d:/csgcc/bin/../lib/gcc/mips-sde-elf/4.3.2/el/sof\libgcc.a(_mul_df.o)
                              d:/csgcc/bin/../lib/gcc/mips-sde-elf/4.3.2/../../../../mips-sde-elf/lib/el/sof\libc.a(lib_a-dtoa.o) (__muldf3)
d:/csgcc/bin/../lib/gcc/mips-sde-elf/4.3.2/el/sof\libgcc.a(_div_df.o)
                              d:/csgcc/bin/../lib/gcc/mips-sde-elf/4.3.2/../../../../mips-sde-elf/lib/el/sof\libc.a(lib_a-dtoa.o) (__divdf3)
d:/csgcc/bin/../lib/gcc/mips-sde-elf/4.3.2/el/sof\libgcc.a(_eq_df.o)
                              d:/csgcc/bin/../lib/gcc/mips-sde-elf/4.3.2/../../../../mips-sde-elf/lib/el/sof\libc.a(lib_a-vfprintf.o) (__eqdf2)
d:/csgcc/bin/../lib/gcc/mips-sde-elf/4.3.2/el/sof\libgcc.a(_ne_df.o)
                              d:/csgcc/bin/../lib/gcc/mips-sde-elf/4.3.2/../../../../mips-sde-elf/lib/el/sof\libc.a(lib_a-vfprintf.o) (__nedf2)
d:/csgcc/bin/../lib/gcc/mips-sde-elf/4.3.2/el/sof\libgcc.a(_gt_df.o)
                              d:/csgcc/bin/../lib/gcc/mips-sde-elf/4.3.2/../../../../mips-sde-elf/lib/el/sof\libc.a(lib_a-dtoa.o) (__gtdf2)
d:/csgcc/bin/../lib/gcc/mips-sde-elf/4.3.2/el/sof\libgcc.a(_ge_df.o)
                              d:/csgcc/bin/../lib/gcc/mips-sde-elf/4.3.2/../../../../mips-sde-elf/lib/el/sof\libc.a(lib_a-dtoa.o) (__gedf2)
d:/csgcc/bin/../lib/gcc/mips-sde-elf/4.3.2/el/sof\libgcc.a(_lt_df.o)
                              d:/csgcc/bin/../lib/gcc/mips-sde-elf/4.3.2/../../../../mips-sde-elf/lib/el/sof\libc.a(lib_a-vfprintf.o) (__ltdf2)
d:/csgcc/bin/../lib/gcc/mips-sde-elf/4.3.2/el/sof\libgcc.a(_si_to_df.o)
                              d:/csgcc/bin/../lib/gcc/mips-sde-elf/4.3.2/../../../../mips-sde-elf/lib/el/sof\libc.a(lib_a-dtoa.o) (__floatsidf)
d:/csgcc/bin/../lib/gcc/mips-sde-elf/4.3.2/el/sof\libgcc.a(_df_to_si.o)
                              d:/csgcc/bin/../lib/gcc/mips-sde-elf/4.3.2/../../../../mips-sde-elf/lib/el/sof\libc.a(lib_a-dtoa.o) (__fixdfsi)
d:/csgcc/bin/../lib/gcc/mips-sde-elf/4.3.2/el/sof\libgcc.a(_thenan_df.o)
                              d:/csgcc/bin/../lib/gcc/mips-sde-elf/4.3.2/el/sof\libgcc.a(_addsub_df.o) (__thenan_df)
d:/csgcc/bin/../lib/gcc/mips-sde-elf/4.3.2/el/sof\libgcc.a(_usi_to_df.o)
                              d:/csgcc/bin/../lib/gcc/mips-sde-elf/4.3.2/../../../../mips-sde-elf/lib/el/sof\libc.a(lib_a-dtoa.o) (__floatunsidf)
d:/csgcc/bin/../lib/gcc/mips-sde-elf/4.3.2/el/sof\libgcc.a(_lshrdi3.o)
                              d:/csgcc/bin/../lib/gcc/mips-sde-elf/4.3.2/el/sof\libgcc.a(_addsub_df.o) (__lshrdi3)
d:/csgcc/bin/../lib/gcc/mips-sde-elf/4.3.2/el/sof\libgcc.a(_ashldi3.o)
                              d:/csgcc/bin/../lib/gcc/mips-sde-elf/4.3.2/el/sof\libgcc.a(_addsub_df.o) (__ashldi3)
d:/csgcc/bin/../lib/gcc/mips-sde-elf/4.3.2/el/sof\libgcc.a(_ucmpdi2.o)
                              d:/csgcc/bin/../lib/gcc/mips-sde-elf/4.3.2/el/sof\libgcc.a(_addsub_df.o) (__ucmpdi2)
d:/csgcc/bin/../lib/gcc/mips-sde-elf/4.3.2/el/sof\libgcc.a(_pack_df.o)
                              d:/csgcc/bin/../lib/gcc/mips-sde-elf/4.3.2/el/sof\libgcc.a(_addsub_df.o) (__pack_d)
d:/csgcc/bin/../lib/gcc/mips-sde-elf/4.3.2/el/sof\libgcc.a(_unpack_df.o)
                              d:/csgcc/bin/../lib/gcc/mips-sde-elf/4.3.2/el/sof\libgcc.a(_addsub_df.o) (__unpack_d)
d:/csgcc/bin/../lib/gcc/mips-sde-elf/4.3.2/el/sof\libgcc.a(_fpcmp_parts_df.o)
                              d:/csgcc/bin/../lib/gcc/mips-sde-elf/4.3.2/el/sof\libgcc.a(_eq_df.o) (__fpcmp_parts_d)
d:/csgcc/bin/../lib/gcc/mips-sde-elf/4.3.2/../../../../mips-sde-elf/lib/el/sof\libc.a(lib_a-errno.o)
                              d:/csgcc/bin/../lib/gcc/mips-sde-elf/4.3.2/../../../../mips-sde-elf/lib/el/sof\libcs3unhosted.a(unhosted-close.o) (__errno)
d:/csgcc/bin/../lib/gcc/mips-sde-elf/4.3.2/../../../../mips-sde-elf/lib/el/sof\libc.a(lib_a-init.o)
                              d:/csgcc/bin/../lib/gcc/mips-sde-elf/4.3.2/../../../../mips-sde-elf/lib/el/sof\libcs3.a(start_c.o) (__libc_init_array)
d:/csgcc/bin/../lib/gcc/mips-sde-elf/4.3.2/../../../../mips-sde-elf/lib/el/sof\libcs3.a(heap.o)
                              d:/csgcc/bin/../lib/gcc/mips-sde-elf/4.3.2/../../../../mips-sde-elf/lib/el/sof\libcs3unhosted.a(unhosted-sbrk.o) (__cs3_heap_limit)

Allocating common symbols
Common symbol       size              file

errno               0x4               d:/csgcc/bin/../lib/gcc/mips-sde-elf/4.3.2/../../../../mips-sde-elf/lib/el/sof\libc.a(lib_a-reent.o)

Discarded input sections

 .reginfo       0x0000000000000000        0x0 d:/csgcc/bin/../lib/gcc/mips-sde-elf/4.3.2/el/sof/crtbegin.o
 .reginfo       0x0000000000000000        0x0 obj/pic32mx_cfg_init.o
 .reginfo       0x0000000000000000        0x0 obj/PIC32MX-reset.o
 .reginfo       0x0000000000000000        0x0 obj/ISRwrapper.o
 _ZN13C_ElapsedTime23millisecondsHaveElapsedEi
                0x0000000000000000        0x0 obj/CPP_Demo.o
 _ZN13C_ElapsedTime5resetEv
                0x0000000000000000        0x0 obj/CPP_Demo.o
 _ZN13C_ElapsedTimeC1Ev
                0x0000000000000000        0x0 obj/CPP_Demo.o
 _ZN13C_ElapsedTime8waitMsecEi
                0x0000000000000000        0x0 obj/CPP_Demo.o
 .reginfo       0x0000000000000000        0x0 obj/CPP_Demo.o
 .reginfo       0x0000000000000000        0x0 obj/DRN_PIC32MX_UART1.o
 .reginfo       0x0000000000000000        0x0 obj/DRN_PIC32MX_CS_glue.o
 .reginfo       0x0000000000000000        0x0 obj/PIC32MX_time.o
 .reginfo       0x0000000000000000        0x0 obj/int_enable_interrupts_lib.o
 .reginfo       0x0000000000000000        0x0 obj/int_disable_interrupts_lib.o
 .reginfo       0x0000000000000000        0x0 obj/int_restore_interrupts_lib.o
 .reginfo       0x0000000000000000        0x0 obj/p32mx440f256h.o
 .reginfo       0x0000000000000000        0x0 obj/pcache.o
 .reginfo       0x0000000000000000        0x0 d:/csgcc/bin/../lib/gcc/mips-sde-elf/4.3.2/../../../../mips-sde-elf/lib/el/sof\libstdc++.a(eh_personality.o)
 .reginfo       0x0000000000000000        0x0 d:/csgcc/bin/../lib/gcc/mips-sde-elf/4.3.2/../../../../mips-sde-elf/lib/el/sof\libstdc++.a(eh_terminate.o)
 .reginfo       0x0000000000000000        0x0 d:/csgcc/bin/../lib/gcc/mips-sde-elf/4.3.2/../../../../mips-sde-elf/lib/el/sof\libstdc++.a(eh_throw.o)
 .reginfo       0x0000000000000000        0x0 d:/csgcc/bin/../lib/gcc/mips-sde-elf/4.3.2/../../../../mips-sde-elf/lib/el/sof\libstdc++.a(eh_unex_handler.o)
 .reginfo       0x0000000000000000        0x0 d:/csgcc/bin/../lib/gcc/mips-sde-elf/4.3.2/../../../../mips-sde-elf/lib/el/sof\libstdc++.a(eh_alloc.o)
 .reginfo       0x0000000000000000        0x0 d:/csgcc/bin/../lib/gcc/mips-sde-elf/4.3.2/../../../../mips-sde-elf/lib/el/sof\libstdc++.a(eh_call.o)
 .reginfo       0x0000000000000000        0x0 d:/csgcc/bin/../lib/gcc/mips-sde-elf/4.3.2/../../../../mips-sde-elf/lib/el/sof\libstdc++.a(eh_catch.o)
 _ZTVN10__cxxabiv119__foreign_exceptionE
                0x0000000000000000        0x0 d:/csgcc/bin/../lib/gcc/mips-sde-elf/4.3.2/../../../../mips-sde-elf/lib/el/sof\libstdc++.a(eh_exception.o)
 _ZTVN10__cxxabiv115__forced_unwindE
                0x0000000000000000        0x0 d:/csgcc/bin/../lib/gcc/mips-sde-elf/4.3.2/../../../../mips-sde-elf/lib/el/sof\libstdc++.a(eh_exception.o)
 _ZTVSt13bad_exception
                0x0000000000000000        0x0 d:/csgcc/bin/../lib/gcc/mips-sde-elf/4.3.2/../../../../mips-sde-elf/lib/el/sof\libstdc++.a(eh_exception.o)
 _ZTVSt9exception
                0x0000000000000000        0x0 d:/csgcc/bin/../lib/gcc/mips-sde-elf/4.3.2/../../../../mips-sde-elf/lib/el/sof\libstdc++.a(eh_exception.o)
 _ZTSN10__cxxabiv119__foreign_exceptionE
                0x0000000000000000        0x0 d:/csgcc/bin/../lib/gcc/mips-sde-elf/4.3.2/../../../../mips-sde-elf/lib/el/sof\libstdc++.a(eh_exception.o)
 _ZTIN10__cxxabiv119__foreign_exceptionE
                0x0000000000000000        0x0 d:/csgcc/bin/../lib/gcc/mips-sde-elf/4.3.2/../../../../mips-sde-elf/lib/el/sof\libstdc++.a(eh_exception.o)
 _ZTSN10__cxxabiv115__forced_unwindE
                0x0000000000000000        0x0 d:/csgcc/bin/../lib/gcc/mips-sde-elf/4.3.2/../../../../mips-sde-elf/lib/el/sof\libstdc++.a(eh_exception.o)
 _ZTIN10__cxxabiv115__forced_unwindE
                0x0000000000000000        0x0 d:/csgcc/bin/../lib/gcc/mips-sde-elf/4.3.2/../../../../mips-sde-elf/lib/el/sof\libstdc++.a(eh_exception.o)
 _ZTSSt13bad_exception
                0x0000000000000000        0x0 d:/csgcc/bin/../lib/gcc/mips-sde-elf/4.3.2/../../../../mips-sde-elf/lib/el/sof\libstdc++.a(eh_exception.o)
 _ZTISt13bad_exception
                0x0000000000000000        0x0 d:/csgcc/bin/../lib/gcc/mips-sde-elf/4.3.2/../../../../mips-sde-elf/lib/el/sof\libstdc++.a(eh_exception.o)
 _ZTSSt9exception
                0x0000000000000000        0x0 d:/csgcc/bin/../lib/gcc/mips-sde-elf/4.3.2/../../../../mips-sde-elf/lib/el/sof\libstdc++.a(eh_exception.o)
 _ZTISt9exception
                0x0000000000000000        0x0 d:/csgcc/bin/../lib/gcc/mips-sde-elf/4.3.2/../../../../mips-sde-elf/lib/el/sof\libstdc++.a(eh_exception.o)
 .reginfo       0x0000000000000000        0x0 d:/csgcc/bin/../lib/gcc/mips-sde-elf/4.3.2/../../../../mips-sde-elf/lib/el/sof\libstdc++.a(eh_exception.o)
 .reginfo       0x0000000000000000        0x0 d:/csgcc/bin/../lib/gcc/mips-sde-elf/4.3.2/../../../../mips-sde-elf/lib/el/sof\libstdc++.a(eh_globals.o)
 .reginfo       0x0000000000000000        0x0 d:/csgcc/bin/../lib/gcc/mips-sde-elf/4.3.2/../../../../mips-sde-elf/lib/el/sof\libstdc++.a(eh_term_handler.o)
 .reginfo       0x0000000000000000        0x0 d:/csgcc/bin/../lib/gcc/mips-sde-elf/4.3.2/../../../../mips-sde-elf/lib/el/sof\libstdc++.a(pure.o)
 _ZTVN10__cxxabiv120__si_class_type_infoE
                0x0000000000000000        0x0 d:/csgcc/bin/../lib/gcc/mips-sde-elf/4.3.2/../../../../mips-sde-elf/lib/el/sof\libstdc++.a(si_class_type_info.o)
 _ZTSN10__cxxabiv120__si_class_type_infoE
                0x0000000000000000        0x0 d:/csgcc/bin/../lib/gcc/mips-sde-elf/4.3.2/../../../../mips-sde-elf/lib/el/sof\libstdc++.a(si_class_type_info.o)
 _ZTIN10__cxxabiv120__si_class_type_infoE
                0x0000000000000000        0x0 d:/csgcc/bin/../lib/gcc/mips-sde-elf/4.3.2/../../../../mips-sde-elf/lib/el/sof\libstdc++.a(si_class_type_info.o)
 .reginfo       0x0000000000000000        0x0 d:/csgcc/bin/../lib/gcc/mips-sde-elf/4.3.2/../../../../mips-sde-elf/lib/el/sof\libstdc++.a(si_class_type_info.o)
 _ZTVSt9type_info
                0x0000000000000000        0x0 d:/csgcc/bin/../lib/gcc/mips-sde-elf/4.3.2/../../../../mips-sde-elf/lib/el/sof\libstdc++.a(tinfo.o)
 _ZTSSt9type_info
                0x0000000000000000        0x0 d:/csgcc/bin/../lib/gcc/mips-sde-elf/4.3.2/../../../../mips-sde-elf/lib/el/sof\libstdc++.a(tinfo.o)
 _ZTISt9type_info
                0x0000000000000000        0x0 d:/csgcc/bin/../lib/gcc/mips-sde-elf/4.3.2/../../../../mips-sde-elf/lib/el/sof\libstdc++.a(tinfo.o)
 .reginfo       0x0000000000000000        0x0 d:/csgcc/bin/../lib/gcc/mips-sde-elf/4.3.2/../../../../mips-sde-elf/lib/el/sof\libstdc++.a(tinfo.o)
 .reginfo       0x0000000000000000        0x0 d:/csgcc/bin/../lib/gcc/mips-sde-elf/4.3.2/../../../../mips-sde-elf/lib/el/sof\libstdc++.a(vterminate.o)
 .reginfo       0x0000000000000000        0x0 d:/csgcc/bin/../lib/gcc/mips-sde-elf/4.3.2/../../../../mips-sde-elf/lib/el/sof\libstdc++.a(cp-demangle.o)
 _ZTVN10__cxxabiv117__class_type_infoE
                0x0000000000000000        0x0 d:/csgcc/bin/../lib/gcc/mips-sde-elf/4.3.2/../../../../mips-sde-elf/lib/el/sof\libstdc++.a(class_type_info.o)
 _ZTSN10__cxxabiv117__class_type_infoE
                0x0000000000000000        0x0 d:/csgcc/bin/../lib/gcc/mips-sde-elf/4.3.2/../../../../mips-sde-elf/lib/el/sof\libstdc++.a(class_type_info.o)
 _ZTIN10__cxxabiv117__class_type_infoE
                0x0000000000000000        0x0 d:/csgcc/bin/../lib/gcc/mips-sde-elf/4.3.2/../../../../mips-sde-elf/lib/el/sof\libstdc++.a(class_type_info.o)
 .reginfo       0x0000000000000000        0x0 d:/csgcc/bin/../lib/gcc/mips-sde-elf/4.3.2/../../../../mips-sde-elf/lib/el/sof\libstdc++.a(class_type_info.o)
 .reginfo       0x0000000000000000        0x0 d:/csgcc/bin/../lib/gcc/mips-sde-elf/4.3.2/../../../../mips-sde-elf/lib/el/sof\libstdc++.a(del_op.o)
 .reginfo       0x0000000000000000        0x0 d:/csgcc/bin/../lib/gcc/mips-sde-elf/4.3.2/../../../../mips-sde-elf/lib/el/sof\libstdc++.a(eh_type.o)
 .reginfo       0x0000000000000000        0x0 d:/csgcc/bin/../lib/gcc/mips-sde-elf/4.3.2/el/sof\libgcc.a(unwind-dw2.o)
 .reginfo       0x0000000000000000        0x0 d:/csgcc/bin/../lib/gcc/mips-sde-elf/4.3.2/el/sof\libgcc.a(unwind-dw2-fde.o)
 .reginfo       0x0000000000000000        0x0 d:/csgcc/bin/../lib/gcc/mips-sde-elf/4.3.2/el/sof/crtend.o
 .reginfo       0x0000000000000000        0x0 d:/csgcc/bin/../lib/gcc/mips-sde-elf/4.3.2/el/sof/crtn.o
 .reginfo       0x0000000000000000        0x0 d:/csgcc/bin/../lib/gcc/mips-sde-elf/4.3.2/../../../../mips-sde-elf/lib/el/sof\libc.a(lib_a-abort.o)
 .reginfo       0x0000000000000000        0x0 d:/csgcc/bin/../lib/gcc/mips-sde-elf/4.3.2/../../../../mips-sde-elf/lib/el/sof\libc.a(lib_a-ctime.o)
 .reginfo       0x0000000000000000        0x0 d:/csgcc/bin/../lib/gcc/mips-sde-elf/4.3.2/../../../../mips-sde-elf/lib/el/sof\libc.a(lib_a-fputc.o)
 .reginfo       0x0000000000000000        0x0 d:/csgcc/bin/../lib/gcc/mips-sde-elf/4.3.2/../../../../mips-sde-elf/lib/el/sof\libc.a(lib_a-fputs.o)
 .reginfo       0x0000000000000000        0x0 d:/csgcc/bin/../lib/gcc/mips-sde-elf/4.3.2/../../../../mips-sde-elf/lib/el/sof\libc.a(lib_a-fvwrite.o)
 .reginfo       0x0000000000000000        0x0 d:/csgcc/bin/../lib/gcc/mips-sde-elf/4.3.2/../../../../mips-sde-elf/lib/el/sof\libc.a(lib_a-impure.o)
 .reginfo       0x0000000000000000        0x0 d:/csgcc/bin/../lib/gcc/mips-sde-elf/4.3.2/../../../../mips-sde-elf/lib/el/sof\libc.a(lib_a-lcltime.o)
 .reginfo       0x0000000000000000        0x0 d:/csgcc/bin/../lib/gcc/mips-sde-elf/4.3.2/../../../../mips-sde-elf/lib/el/sof\libc.a(lib_a-lcltime_r.o)
 .reginfo       0x0000000000000000        0x0 d:/csgcc/bin/../lib/gcc/mips-sde-elf/4.3.2/../../../../mips-sde-elf/lib/el/sof\libc.a(lib_a-malloc.o)
 .reginfo       0x0000000000000000        0x0 d:/csgcc/bin/../lib/gcc/mips-sde-elf/4.3.2/../../../../mips-sde-elf/lib/el/sof\libc.a(lib_a-mallocr.o)
 .reginfo       0x0000000000000000        0x0 d:/csgcc/bin/../lib/gcc/mips-sde-elf/4.3.2/../../../../mips-sde-elf/lib/el/sof\libc.a(lib_a-memchr.o)
 .reginfo       0x0000000000000000        0x0 d:/csgcc/bin/../lib/gcc/mips-sde-elf/4.3.2/../../../../mips-sde-elf/lib/el/sof\libc.a(lib_a-memcmp.o)
 .reginfo       0x0000000000000000        0x0 d:/csgcc/bin/../lib/gcc/mips-sde-elf/4.3.2/../../../../mips-sde-elf/lib/el/sof\libc.a(lib_a-memcpy.o)
 .reginfo       0x0000000000000000        0x0 d:/csgcc/bin/../lib/gcc/mips-sde-elf/4.3.2/../../../../mips-sde-elf/lib/el/sof\libc.a(lib_a-memmove.o)
 .reginfo       0x0000000000000000        0x0 d:/csgcc/bin/../lib/gcc/mips-sde-elf/4.3.2/../../../../mips-sde-elf/lib/el/sof\libc.a(lib_a-memset.o)
 .reginfo       0x0000000000000000        0x0 d:/csgcc/bin/../lib/gcc/mips-sde-elf/4.3.2/../../../../mips-sde-elf/lib/el/sof\libc.a(lib_a-mktm_r.o)
 .reginfo       0x0000000000000000        0x0 d:/csgcc/bin/../lib/gcc/mips-sde-elf/4.3.2/../../../../mips-sde-elf/lib/el/sof\libc.a(lib_a-mlock.o)
 .reginfo       0x0000000000000000        0x0 d:/csgcc/bin/../lib/gcc/mips-sde-elf/4.3.2/../../../../mips-sde-elf/lib/el/sof\libc.a(lib_a-printf.o)
 .reginfo       0x0000000000000000        0x0 d:/csgcc/bin/../lib/gcc/mips-sde-elf/4.3.2/../../../../mips-sde-elf/lib/el/sof\libc.a(lib_a-putc.o)
 .reginfo       0x0000000000000000        0x0 d:/csgcc/bin/../lib/gcc/mips-sde-elf/4.3.2/../../../../mips-sde-elf/lib/el/sof\libc.a(lib_a-realloc.o)
 .reginfo       0x0000000000000000        0x0 d:/csgcc/bin/../lib/gcc/mips-sde-elf/4.3.2/../../../../mips-sde-elf/lib/el/sof\libc.a(lib_a-reallocr.o)
 .reginfo       0x0000000000000000        0x0 d:/csgcc/bin/../lib/gcc/mips-sde-elf/4.3.2/../../../../mips-sde-elf/lib/el/sof\libc.a(lib_a-sbrkr.o)
 .reginfo       0x0000000000000000        0x0 d:/csgcc/bin/../lib/gcc/mips-sde-elf/4.3.2/../../../../mips-sde-elf/lib/el/sof\libc.a(lib_a-signal.o)
 .reginfo       0x0000000000000000        0x0 d:/csgcc/bin/../lib/gcc/mips-sde-elf/4.3.2/../../../../mips-sde-elf/lib/el/sof\libc.a(lib_a-signalr.o)
 .reginfo       0x0000000000000000        0x0 d:/csgcc/bin/../lib/gcc/mips-sde-elf/4.3.2/../../../../mips-sde-elf/lib/el/sof\libc.a(lib_a-strcmp.o)
 .reginfo       0x0000000000000000        0x0 d:/csgcc/bin/../lib/gcc/mips-sde-elf/4.3.2/../../../../mips-sde-elf/lib/el/sof\libc.a(lib_a-strcpy.o)
 .reginfo       0x0000000000000000        0x0 d:/csgcc/bin/../lib/gcc/mips-sde-elf/4.3.2/../../../../mips-sde-elf/lib/el/sof\libc.a(lib_a-strlen.o)
 .reginfo       0x0000000000000000        0x0 d:/csgcc/bin/../lib/gcc/mips-sde-elf/4.3.2/../../../../mips-sde-elf/lib/el/sof\libc.a(lib_a-strncmp.o)
 .reginfo       0x0000000000000000        0x0 d:/csgcc/bin/../lib/gcc/mips-sde-elf/4.3.2/../../../../mips-sde-elf/lib/el/sof\libc.a(lib_a-tzvars.o)
 .reginfo       0x0000000000000000        0x0 d:/csgcc/bin/../lib/gcc/mips-sde-elf/4.3.2/../../../../mips-sde-elf/lib/el/sof\libc.a(lib_a-vfprintf.o)
 .reginfo       0x0000000000000000        0x0 d:/csgcc/bin/../lib/gcc/mips-sde-elf/4.3.2/../../../../mips-sde-elf/lib/el/sof\libc.a(lib_a-wbuf.o)
 .reginfo       0x0000000000000000        0x0 d:/csgcc/bin/../lib/gcc/mips-sde-elf/4.3.2/../../../../mips-sde-elf/lib/el/sof\libc.a(lib_a-wsetup.o)
 .reginfo       0x0000000000000000        0x0 d:/csgcc/bin/../lib/gcc/mips-sde-elf/4.3.2/../../../../mips-sde-elf/lib/el/sof\libc.a(lib_a-asctime.o)
 .reginfo       0x0000000000000000        0x0 d:/csgcc/bin/../lib/gcc/mips-sde-elf/4.3.2/../../../../mips-sde-elf/lib/el/sof\libc.a(lib_a-asctime_r.o)
 .reginfo       0x0000000000000000        0x0 d:/csgcc/bin/../lib/gcc/mips-sde-elf/4.3.2/../../../../mips-sde-elf/lib/el/sof\libc.a(lib_a-dtoa.o)
 .reginfo       0x0000000000000000        0x0 d:/csgcc/bin/../lib/gcc/mips-sde-elf/4.3.2/../../../../mips-sde-elf/lib/el/sof\libc.a(lib_a-fflush.o)
 .reginfo       0x0000000000000000        0x0 d:/csgcc/bin/../lib/gcc/mips-sde-elf/4.3.2/../../../../mips-sde-elf/lib/el/sof\libc.a(lib_a-findfp.o)
 .reginfo       0x0000000000000000        0x0 d:/csgcc/bin/../lib/gcc/mips-sde-elf/4.3.2/../../../../mips-sde-elf/lib/el/sof\libc.a(lib_a-freer.o)
 .reginfo       0x0000000000000000        0x0 d:/csgcc/bin/../lib/gcc/mips-sde-elf/4.3.2/../../../../mips-sde-elf/lib/el/sof\libc.a(lib_a-fwalk.o)
 .reginfo       0x0000000000000000        0x0 d:/csgcc/bin/../lib/gcc/mips-sde-elf/4.3.2/../../../../mips-sde-elf/lib/el/sof\libc.a(lib_a-gettzinfo.o)
 .reginfo       0x0000000000000000        0x0 d:/csgcc/bin/../lib/gcc/mips-sde-elf/4.3.2/../../../../mips-sde-elf/lib/el/sof\libc.a(lib_a-locale.o)
 .reginfo       0x0000000000000000        0x0 d:/csgcc/bin/../lib/gcc/mips-sde-elf/4.3.2/../../../../mips-sde-elf/lib/el/sof\libc.a(lib_a-makebuf.o)
 .reginfo       0x0000000000000000        0x0 d:/csgcc/bin/../lib/gcc/mips-sde-elf/4.3.2/../../../../mips-sde-elf/lib/el/sof\libc.a(lib_a-mprec.o)
 .reginfo       0x0000000000000000        0x0 d:/csgcc/bin/../lib/gcc/mips-sde-elf/4.3.2/../../../../mips-sde-elf/lib/el/sof\libc.a(lib_a-reent.o)
 .reginfo       0x0000000000000000        0x0 d:/csgcc/bin/../lib/gcc/mips-sde-elf/4.3.2/../../../../mips-sde-elf/lib/el/sof\libc.a(lib_a-s_isinfd.o)
 .reginfo       0x0000000000000000        0x0 d:/csgcc/bin/../lib/gcc/mips-sde-elf/4.3.2/../../../../mips-sde-elf/lib/el/sof\libc.a(lib_a-s_isnand.o)
 .reginfo       0x0000000000000000        0x0 d:/csgcc/bin/../lib/gcc/mips-sde-elf/4.3.2/../../../../mips-sde-elf/lib/el/sof\libc.a(lib_a-sprintf.o)
 .reginfo       0x0000000000000000        0x0 d:/csgcc/bin/../lib/gcc/mips-sde-elf/4.3.2/../../../../mips-sde-elf/lib/el/sof\libc.a(lib_a-stdio.o)
 .reginfo       0x0000000000000000        0x0 d:/csgcc/bin/../lib/gcc/mips-sde-elf/4.3.2/../../../../mips-sde-elf/lib/el/sof\libc.a(lib_a-writer.o)
 .reginfo       0x0000000000000000        0x0 d:/csgcc/bin/../lib/gcc/mips-sde-elf/4.3.2/../../../../mips-sde-elf/lib/el/sof\libc.a(lib_a-callocr.o)
 .reginfo       0x0000000000000000        0x0 d:/csgcc/bin/../lib/gcc/mips-sde-elf/4.3.2/../../../../mips-sde-elf/lib/el/sof\libc.a(lib_a-closer.o)
 .reginfo       0x0000000000000000        0x0 d:/csgcc/bin/../lib/gcc/mips-sde-elf/4.3.2/../../../../mips-sde-elf/lib/el/sof\libc.a(lib_a-fclose.o)
 .reginfo       0x0000000000000000        0x0 d:/csgcc/bin/../lib/gcc/mips-sde-elf/4.3.2/../../../../mips-sde-elf/lib/el/sof\libc.a(lib_a-fstatr.o)
 .reginfo       0x0000000000000000        0x0 d:/csgcc/bin/../lib/gcc/mips-sde-elf/4.3.2/../../../../mips-sde-elf/lib/el/sof\libc.a(lib_a-isattyr.o)
 .reginfo       0x0000000000000000        0x0 d:/csgcc/bin/../lib/gcc/mips-sde-elf/4.3.2/../../../../mips-sde-elf/lib/el/sof\libc.a(lib_a-lseekr.o)
 .reginfo       0x0000000000000000        0x0 d:/csgcc/bin/../lib/gcc/mips-sde-elf/4.3.2/../../../../mips-sde-elf/lib/el/sof\libc.a(lib_a-readr.o)
 .reginfo       0x0000000000000000        0x0 d:/csgcc/bin/../lib/gcc/mips-sde-elf/4.3.2/../../../../mips-sde-elf/lib/el/sof\libcs3.a(start_c.o)
 .reginfo       0x0000000000000000        0x0 d:/csgcc/bin/../lib/gcc/mips-sde-elf/4.3.2/../../../../mips-sde-elf/lib/el/sof\libcs3unhosted.a(unhosted-_exit.o)
 .reginfo       0x0000000000000000        0x0 d:/csgcc/bin/../lib/gcc/mips-sde-elf/4.3.2/../../../../mips-sde-elf/lib/el/sof\libcs3unhosted.a(unhosted-close.o)
 .reginfo       0x0000000000000000        0x0 d:/csgcc/bin/../lib/gcc/mips-sde-elf/4.3.2/../../../../mips-sde-elf/lib/el/sof\libcs3unhosted.a(unhosted-fstat.o)
 .reginfo       0x0000000000000000        0x0 d:/csgcc/bin/../lib/gcc/mips-sde-elf/4.3.2/../../../../mips-sde-elf/lib/el/sof\libcs3unhosted.a(unhosted-isatty.o)
 .reginfo       0x0000000000000000        0x0 d:/csgcc/bin/../lib/gcc/mips-sde-elf/4.3.2/../../../../mips-sde-elf/lib/el/sof\libcs3unhosted.a(unhosted-lseek.o)
 .reginfo       0x0000000000000000        0x0 d:/csgcc/bin/../lib/gcc/mips-sde-elf/4.3.2/../../../../mips-sde-elf/lib/el/sof\libcs3unhosted.a(unhosted-open.o)
 .reginfo       0x0000000000000000        0x0 d:/csgcc/bin/../lib/gcc/mips-sde-elf/4.3.2/../../../../mips-sde-elf/lib/el/sof\libcs3unhosted.a(unhosted-sbrk.o)
 .reginfo       0x0000000000000000        0x0 d:/csgcc/bin/../lib/gcc/mips-sde-elf/4.3.2/../../../../mips-sde-elf/lib/el/sof\libcs3unhosted.a(unhosted-getpid.o)
 .reginfo       0x0000000000000000        0x0 d:/csgcc/bin/../lib/gcc/mips-sde-elf/4.3.2/../../../../mips-sde-elf/lib/el/sof\libcs3unhosted.a(unhosted-kill.o)
 .reginfo       0x0000000000000000        0x0 d:/csgcc/bin/../lib/gcc/mips-sde-elf/4.3.2/../../../../mips-sde-elf/lib/el/sof\libcs3unhosted.a(start.o)
 .reginfo       0x0000000000000000        0x0 d:/csgcc/bin/../lib/gcc/mips-sde-elf/4.3.2/el/sof\libgcc.a(_udivdi3.o)
 .reginfo       0x0000000000000000        0x0 d:/csgcc/bin/../lib/gcc/mips-sde-elf/4.3.2/el/sof\libgcc.a(_umoddi3.o)
 .reginfo       0x0000000000000000        0x0 d:/csgcc/bin/../lib/gcc/mips-sde-elf/4.3.2/el/sof\libgcc.a(_addsub_df.o)
 .reginfo       0x0000000000000000        0x0 d:/csgcc/bin/../lib/gcc/mips-sde-elf/4.3.2/el/sof\libgcc.a(_mul_df.o)
 .reginfo       0x0000000000000000        0x0 d:/csgcc/bin/../lib/gcc/mips-sde-elf/4.3.2/el/sof\libgcc.a(_div_df.o)
 .reginfo       0x0000000000000000        0x0 d:/csgcc/bin/../lib/gcc/mips-sde-elf/4.3.2/el/sof\libgcc.a(_eq_df.o)
 .reginfo       0x0000000000000000        0x0 d:/csgcc/bin/../lib/gcc/mips-sde-elf/4.3.2/el/sof\libgcc.a(_ne_df.o)
 .reginfo       0x0000000000000000        0x0 d:/csgcc/bin/../lib/gcc/mips-sde-elf/4.3.2/el/sof\libgcc.a(_gt_df.o)
 .reginfo       0x0000000000000000        0x0 d:/csgcc/bin/../lib/gcc/mips-sde-elf/4.3.2/el/sof\libgcc.a(_ge_df.o)
 .reginfo       0x0000000000000000        0x0 d:/csgcc/bin/../lib/gcc/mips-sde-elf/4.3.2/el/sof\libgcc.a(_lt_df.o)
 .reginfo       0x0000000000000000        0x0 d:/csgcc/bin/../lib/gcc/mips-sde-elf/4.3.2/el/sof\libgcc.a(_si_to_df.o)
 .reginfo       0x0000000000000000        0x0 d:/csgcc/bin/../lib/gcc/mips-sde-elf/4.3.2/el/sof\libgcc.a(_df_to_si.o)
 .reginfo       0x0000000000000000        0x0 d:/csgcc/bin/../lib/gcc/mips-sde-elf/4.3.2/el/sof\libgcc.a(_thenan_df.o)
 .reginfo       0x0000000000000000        0x0 d:/csgcc/bin/../lib/gcc/mips-sde-elf/4.3.2/el/sof\libgcc.a(_usi_to_df.o)
 .reginfo       0x0000000000000000        0x0 d:/csgcc/bin/../lib/gcc/mips-sde-elf/4.3.2/el/sof\libgcc.a(_lshrdi3.o)
 .reginfo       0x0000000000000000        0x0 d:/csgcc/bin/../lib/gcc/mips-sde-elf/4.3.2/el/sof\libgcc.a(_ashldi3.o)
 .reginfo       0x0000000000000000        0x0 d:/csgcc/bin/../lib/gcc/mips-sde-elf/4.3.2/el/sof\libgcc.a(_ucmpdi2.o)
 .reginfo       0x0000000000000000        0x0 d:/csgcc/bin/../lib/gcc/mips-sde-elf/4.3.2/el/sof\libgcc.a(_pack_df.o)
 .reginfo       0x0000000000000000        0x0 d:/csgcc/bin/../lib/gcc/mips-sde-elf/4.3.2/el/sof\libgcc.a(_unpack_df.o)
 .reginfo       0x0000000000000000        0x0 d:/csgcc/bin/../lib/gcc/mips-sde-elf/4.3.2/el/sof\libgcc.a(_fpcmp_parts_df.o)
 .reginfo       0x0000000000000000        0x0 d:/csgcc/bin/../lib/gcc/mips-sde-elf/4.3.2/../../../../mips-sde-elf/lib/el/sof\libc.a(lib_a-errno.o)
 .reginfo       0x0000000000000000        0x0 d:/csgcc/bin/../lib/gcc/mips-sde-elf/4.3.2/../../../../mips-sde-elf/lib/el/sof\libc.a(lib_a-init.o)
 .reginfo       0x0000000000000000        0x0 d:/csgcc/bin/../lib/gcc/mips-sde-elf/4.3.2/../../../../mips-sde-elf/lib/el/sof\libcs3.a(heap.o)

Memory Configuration

Name             Origin             Length             Attributes
ram0             0x00000000a0000000 0x0000000000000010 !xr
ram              0x00000000a0000010 0x0000000000007ff0 !xr
PIC32MX_flash_user 0x00000000bd000000 0x0000000000020000 xr
PIC32MX_flash_boot 0x00000000bfc00000 0x0000000000002000 xr
PIC32MX_flash_cfg 0x00000000bfc02ff0 0x0000000000000010 r !x
*default*        0x0000000000000000 0xffffffffffffffff

Linker script and memory map

LOAD d:/csgcc/bin/../lib/gcc/mips-sde-elf/4.3.2/el/sof/crti.o
LOAD d:/csgcc/bin/../lib/gcc/mips-sde-elf/4.3.2/el/sof/crtbegin.o
LOAD obj/pic32mx_cfg_init.o
LOAD obj/PIC32MX-reset.o
LOAD obj/ISRwrapper.o
LOAD obj/CPP_Demo.o
LOAD obj/DRN_PIC32MX_UART1.o
LOAD obj/DRN_PIC32MX_CS_glue.o
LOAD obj/PIC32MX_time.o
LOAD obj/int_enable_interrupts_lib.o
LOAD obj/int_disable_interrupts_lib.o
LOAD obj/int_restore_interrupts_lib.o
LOAD obj/p32mx440f256h.o
LOAD obj/pcache.o
LOAD d:/csgcc/bin/../lib/gcc/mips-sde-elf/4.3.2/../../../../mips-sde-elf/lib/el/sof\libstdc++.a
LOAD d:/csgcc/bin/../lib/gcc/mips-sde-elf/4.3.2/../../../../mips-sde-elf/lib/el/sof\libm.a
LOAD d:/csgcc/bin/../lib/gcc/mips-sde-elf/4.3.2/el/sof\libgcc.a
LOAD d:/csgcc/bin/../lib/gcc/mips-sde-elf/4.3.2/el/sof\libgcc.a
LOAD d:/csgcc/bin/../lib/gcc/mips-sde-elf/4.3.2/el/sof/crtend.o
LOAD d:/csgcc/bin/../lib/gcc/mips-sde-elf/4.3.2/el/sof/crtn.o
START GROUP
LOAD d:/csgcc/bin/../lib/gcc/mips-sde-elf/4.3.2/../../../../mips-sde-elf/lib/el/sof\libcs3hal.a
LOAD d:/csgcc/bin/../lib/gcc/mips-sde-elf/4.3.2/el/sof\libgcc.a
LOAD d:/csgcc/bin/../lib/gcc/mips-sde-elf/4.3.2/../../../../mips-sde-elf/lib/el/sof\libc.a
LOAD d:/csgcc/bin/../lib/gcc/mips-sde-elf/4.3.2/../../../../mips-sde-elf/lib/el/sof\libcs3.a
LOAD d:/csgcc/bin/../lib/gcc/mips-sde-elf/4.3.2/../../../../mips-sde-elf/lib/el/sof\libcs3unhosted.a
END GROUP
                0x0000000000000001                _vector_spacing = 0x1
                0x00000000bfc02000                _ebase_address = 0xbfc02000
                0x0000000000002400                PROVIDE (_min_stack_size, 0x2400)
                0x0000000000002400                PROVIDE (_min_heap_size, 0x2400)
                0x00000000a00013c0                PROVIDE (__cs3_heap_start, _end)
                0x00000000a0005c00                PROVIDE (__cs3_heap_end, ((__cs3_region_start_ram + __cs3_region_size_ram) - _min_stack_size))
                0x00000000a0008000                PROVIDE (__cs3_stack, (__cs3_region_start_ram + __cs3_region_size_ram))
                0x0000000000004840                HEAP_SPACE_AVAILABLE = (__cs3_heap_end - __cs3_heap_start)
                0x0000000000000001                ASSERT ((HEAP_SPACE_AVAILABLE >= _min_heap_size), Not enough heap space)
                0x0000000000000001                PROVIDE (__cs3_region_num, ((__cs3_regions_end - __cs3_regions) / 0x14))

.PIC32MX_cfg_init
                0x00000000bfc02ff0       0x10
 *(PIC32MX_cfg_init)
 PIC32MX_cfg_init
                0x00000000bfc02ff0       0x10 obj/pic32mx_cfg_init.o
                0x00000000bfc02ff0                cfg_words
                0x0000000000000001                ASSERT ((SIZEOF (.PIC32MX_cfg_init) == 0x10), PIC32MX configuration register set must be 4 words long)

.boot_flash_text
                0x00000000bfc00000      0x380
                0x00000000bd0123bc                PROVIDE (__cs3_reset_PIC32MX, _start)
                0x00000000bfc00000                __cs3_reset = __cs3_reset_PIC32MX
 *(.cs3.reset)
 .cs3.reset     0x00000000bfc00000       0xdc obj/PIC32MX-reset.o
                0x00000000bfc00000                __cs3_reset_PIC32MX
                0x00000000bfc00380                . = (__cs3_reset + 0x380)
 *fill*         0x00000000bfc000dc      0x2a4 00
 *(.bev_handler)

.text           0x00000000bd000000    0x140e4
 CREATE_OBJECT_SYMBOLS
                0x00000000bd000000                __cs3_region_start_rom = .
 *(.cs3.region-head.rom)
                0x00000000bd000001                ASSERT ((. == __cs3_region_start_rom), .cs3.region-head.rom not permitted)
 *(.text .text.* .gnu.linkonce.t.*)
 .text          0x00000000bd000000        0x0 d:/csgcc/bin/../lib/gcc/mips-sde-elf/4.3.2/el/sof/crti.o
 .text          0x00000000bd000000      0x108 d:/csgcc/bin/../lib/gcc/mips-sde-elf/4.3.2/el/sof/crtbegin.o
 .text          0x00000000bd000108        0x0 obj/pic32mx_cfg_init.o
 .text          0x00000000bd000108        0x0 obj/PIC32MX-reset.o
 .text          0x00000000bd000108      0x218 obj/ISRwrapper.o
                0x00000000bd000214                vector_24_ISR_wrapper
                0x00000000bd000108                vector_4_ISR_wrapper
 .text          0x00000000bd000320      0x668 obj/CPP_Demo.o
                0x00000000bd000320                main
 .text._ZN13C_ElapsedTime23millisecondsHaveElapsedEi
                0x00000000bd000988       0x54 obj/CPP_Demo.o
                0x00000000bd000988                C_ElapsedTime::millisecondsHaveElapsed(int)
 .text._ZN13C_ElapsedTime5resetEv
                0x00000000bd0009dc       0x40 obj/CPP_Demo.o
                0x00000000bd0009dc                C_ElapsedTime::reset()
 .text._ZN13C_ElapsedTimeC1Ev
                0x00000000bd000a1c       0x38 obj/CPP_Demo.o
                0x00000000bd000a1c                C_ElapsedTime::C_ElapsedTime()
 .text._ZN13C_ElapsedTime8waitMsecEi
                0x00000000bd000a54       0x5c obj/CPP_Demo.o
                0x00000000bd000a54                C_ElapsedTime::waitMsec(int)
 .text          0x00000000bd000ab0      0x668 obj/DRN_PIC32MX_UART1.o
                0x00000000bd000d98                __DRN_UART1_setBaud
                0x00000000bd0010a8                putsUART1
                0x00000000bd000ca0                __DRN_UART1_outputBytesQueued
                0x00000000bd000e40                __DRN_UART1_disable
                0x00000000bd000bfc                __DRN_getc
                0x00000000bd000b34                __DRN_putc
                0x00000000bd000e08                __DRN_UART1_flushRx
                0x00000000bd000d1c                __DRN_UART1_inputBytesQueued
                0x00000000bd000e80                c_vector_24_ISR
 .text          0x00000000bd001118      0x298 obj/DRN_PIC32MX_CS_glue.o
                0x00000000bd0011ac                write
                0x00000000bd0012f4                read
                0x00000000bd001118                DRN_std_redirect
                0x00000000bd001160                DRN_std_unredirect
 .text          0x00000000bd0013b0      0x1b4 obj/PIC32MX_time.o
                0x00000000bd001438                c_vector_4_ISR
                0x00000000bd0014a4                SetSystemTime
                0x00000000bd0014e0                systemMilliseconds
                0x00000000bd001514                time
 .text          0x00000000bd001564       0x2c obj/int_enable_interrupts_lib.o
                0x00000000bd001564                INTEnableInterrupts
 .text          0x00000000bd001590       0x2c obj/int_disable_interrupts_lib.o
                0x00000000bd001590                INTDisableInterrupts
 .text          0x00000000bd0015bc       0x40 obj/int_restore_interrupts_lib.o
                0x00000000bd0015bc                INTRestoreInterrupts
 .text          0x00000000bd0015fc        0x0 obj/p32mx440f256h.o
 .text          0x00000000bd0015fc       0x80 obj/pcache.o
                0x00000000bd00163c                CheKseg0CacheOn
                0x00000000bd0015fc                CheKseg0CacheOff
 .text          0x00000000bd00167c        0x0 d:/csgcc/bin/../lib/gcc/mips-sde-elf/4.3.2/../../../../mips-sde-elf/lib/el/sof\libstdc++.a(eh_personality.o)
 .text._ZL16get_adjusted_ptrPKSt9type_infoS1_PPv
                0x00000000bd00167c       0x98 d:/csgcc/bin/../lib/gcc/mips-sde-elf/4.3.2/../../../../mips-sde-elf/lib/el/sof\libstdc++.a(eh_personality.o)
 .text._ZL21base_of_encoded_valuehP15_Unwind_Context
                0x00000000bd001714       0xb8 d:/csgcc/bin/../lib/gcc/mips-sde-elf/4.3.2/../../../../mips-sde-elf/lib/el/sof\libstdc++.a(eh_personality.o)
 .text._ZL28read_encoded_value_with_basehjPKhPj
                0x00000000bd0017cc      0x160 d:/csgcc/bin/../lib/gcc/mips-sde-elf/4.3.2/../../../../mips-sde-elf/lib/el/sof\libstdc++.a(eh_personality.o)
 .text._ZL18read_encoded_valueP15_Unwind_ContexthPKhPj
                0x00000000bd00192c       0x54 d:/csgcc/bin/../lib/gcc/mips-sde-elf/4.3.2/../../../../mips-sde-elf/lib/el/sof\libstdc++.a(eh_personality.o)
 .text._ZL17parse_lsda_headerP15_Unwind_ContextPKhP16lsda_header_info
                0x00000000bd001980      0x104 d:/csgcc/bin/../lib/gcc/mips-sde-elf/4.3.2/../../../../mips-sde-elf/lib/el/sof\libstdc++.a(eh_personality.o)
 .text._ZL15get_ttype_entryP16lsda_header_infom
                0x00000000bd001a84       0x94 d:/csgcc/bin/../lib/gcc/mips-sde-elf/4.3.2/../../../../mips-sde-elf/lib/el/sof\libstdc++.a(eh_personality.o)
 .text._ZL20check_exception_specP16lsda_header_infoPKSt9type_infoPvl
                0x00000000bd001b18       0xb4 d:/csgcc/bin/../lib/gcc/mips-sde-elf/4.3.2/../../../../mips-sde-elf/lib/el/sof\libstdc++.a(eh_personality.o)
 .text.__cxa_call_unexpected
                0x00000000bd001bcc       0xf8 d:/csgcc/bin/../lib/gcc/mips-sde-elf/4.3.2/../../../../mips-sde-elf/lib/el/sof\libstdc++.a(eh_personality.o)
                0x00000000bd001bcc                __cxa_call_unexpected
 .text.__gxx_personality_v0
                0x00000000bd001cc4      0x4f4 d:/csgcc/bin/../lib/gcc/mips-sde-elf/4.3.2/../../../../mips-sde-elf/lib/el/sof\libstdc++.a(eh_personality.o)
                0x00000000bd001cc4                __gxx_personality_v0
 .text          0x00000000bd0021b8        0x0 d:/csgcc/bin/../lib/gcc/mips-sde-elf/4.3.2/../../../../mips-sde-elf/lib/el/sof\libstdc++.a(eh_terminate.o)
 .text._ZSt13set_terminatePFvvE
                0x00000000bd0021b8       0x10 d:/csgcc/bin/../lib/gcc/mips-sde-elf/4.3.2/../../../../mips-sde-elf/lib/el/sof\libstdc++.a(eh_terminate.o)
                0x00000000bd0021b8                std::set_terminate(void (*)())
 .text._ZSt14set_unexpectedPFvvE
                0x00000000bd0021c8       0x10 d:/csgcc/bin/../lib/gcc/mips-sde-elf/4.3.2/../../../../mips-sde-elf/lib/el/sof\libstdc++.a(eh_terminate.o)
                0x00000000bd0021c8                std::set_unexpected(void (*)())
 .text._ZN10__cxxabiv111__terminateEPFvvE
                0x00000000bd0021d8       0x38 d:/csgcc/bin/../lib/gcc/mips-sde-elf/4.3.2/../../../../mips-sde-elf/lib/el/sof\libstdc++.a(eh_terminate.o)
                0x00000000bd0021d8                __cxxabiv1::__terminate(void (*)())
 .text._ZSt9terminatev
                0x00000000bd002210       0x18 d:/csgcc/bin/../lib/gcc/mips-sde-elf/4.3.2/../../../../mips-sde-elf/lib/el/sof\libstdc++.a(eh_terminate.o)
                0x00000000bd002210                std::terminate()
 .text._ZN10__cxxabiv112__unexpectedEPFvvE
                0x00000000bd002228       0x18 d:/csgcc/bin/../lib/gcc/mips-sde-elf/4.3.2/../../../../mips-sde-elf/lib/el/sof\libstdc++.a(eh_terminate.o)
                0x00000000bd002228                __cxxabiv1::__unexpected(void (*)())
 .text._ZSt10unexpectedv
                0x00000000bd002240       0x18 d:/csgcc/bin/../lib/gcc/mips-sde-elf/4.3.2/../../../../mips-sde-elf/lib/el/sof\libstdc++.a(eh_terminate.o)
                0x00000000bd002240                std::unexpected()
 .text          0x00000000bd002258        0x0 d:/csgcc/bin/../lib/gcc/mips-sde-elf/4.3.2/../../../../mips-sde-elf/lib/el/sof\libstdc++.a(eh_throw.o)
 .text.__cxa_rethrow
                0x00000000bd002258       0x80 d:/csgcc/bin/../lib/gcc/mips-sde-elf/4.3.2/../../../../mips-sde-elf/lib/el/sof\libstdc++.a(eh_throw.o)
                0x00000000bd002258                __cxa_rethrow
 .text.__cxa_throw
                0x00000000bd0022d8       0x70 d:/csgcc/bin/../lib/gcc/mips-sde-elf/4.3.2/../../../../mips-sde-elf/lib/el/sof\libstdc++.a(eh_throw.o)
                0x00000000bd0022d8                __cxa_throw
 .text._ZL23__gxx_exception_cleanup19_Unwind_Reason_CodeP17_Unwind_Exception
                0x00000000bd002348       0x4c d:/csgcc/bin/../lib/gcc/mips-sde-elf/4.3.2/../../../../mips-sde-elf/lib/el/sof\libstdc++.a(eh_throw.o)
 .text          0x00000000bd002394        0x0 d:/csgcc/bin/../lib/gcc/mips-sde-elf/4.3.2/../../../../mips-sde-elf/lib/el/sof\libstdc++.a(eh_unex_handler.o)
 .text          0x00000000bd002394        0x0 d:/csgcc/bin/../lib/gcc/mips-sde-elf/4.3.2/../../../../mips-sde-elf/lib/el/sof\libstdc++.a(eh_alloc.o)
 .text._GLOBAL__I___cxa_allocate_exception
                0x00000000bd002394        0x8 d:/csgcc/bin/../lib/gcc/mips-sde-elf/4.3.2/../../../../mips-sde-elf/lib/el/sof\libstdc++.a(eh_alloc.o)
 .text.__cxa_free_exception
                0x00000000bd00239c       0x60 d:/csgcc/bin/../lib/gcc/mips-sde-elf/4.3.2/../../../../mips-sde-elf/lib/el/sof\libstdc++.a(eh_alloc.o)
                0x00000000bd00239c                __cxa_free_exception
 .text.__cxa_allocate_exception
                0x00000000bd0023fc       0xe8 d:/csgcc/bin/../lib/gcc/mips-sde-elf/4.3.2/../../../../mips-sde-elf/lib/el/sof\libstdc++.a(eh_alloc.o)
                0x00000000bd0023fc                __cxa_allocate_exception
 .text          0x00000000bd0024e4        0x0 d:/csgcc/bin/../lib/gcc/mips-sde-elf/4.3.2/../../../../mips-sde-elf/lib/el/sof\libstdc++.a(eh_call.o)
 .text.__cxa_call_terminate
                0x00000000bd0024e4       0x50 d:/csgcc/bin/../lib/gcc/mips-sde-elf/4.3.2/../../../../mips-sde-elf/lib/el/sof\libstdc++.a(eh_call.o)
                0x00000000bd0024e4                __cxa_call_terminate
 .text          0x00000000bd002534        0x0 d:/csgcc/bin/../lib/gcc/mips-sde-elf/4.3.2/../../../../mips-sde-elf/lib/el/sof\libstdc++.a(eh_catch.o)
 .text.__cxa_get_exception_ptr
                0x00000000bd002534        0x8 d:/csgcc/bin/../lib/gcc/mips-sde-elf/4.3.2/../../../../mips-sde-elf/lib/el/sof\libstdc++.a(eh_catch.o)
                0x00000000bd002534                __cxa_get_exception_ptr
 .text._ZSt18uncaught_exceptionv
                0x00000000bd00253c       0x24 d:/csgcc/bin/../lib/gcc/mips-sde-elf/4.3.2/../../../../mips-sde-elf/lib/el/sof\libstdc++.a(eh_catch.o)
                0x00000000bd00253c                std::uncaught_exception()
 .text.__cxa_end_catch
                0x00000000bd002560       0xb4 d:/csgcc/bin/../lib/gcc/mips-sde-elf/4.3.2/../../../../mips-sde-elf/lib/el/sof\libstdc++.a(eh_catch.o)
                0x00000000bd002560                __cxa_end_catch
 .text.__cxa_begin_catch
                0x00000000bd002614       0xbc d:/csgcc/bin/../lib/gcc/mips-sde-elf/4.3.2/../../../../mips-sde-elf/lib/el/sof\libstdc++.a(eh_catch.o)
                0x00000000bd002614                __cxa_begin_catch
 .text          0x00000000bd0026d0        0x0 d:/csgcc/bin/../lib/gcc/mips-sde-elf/4.3.2/../../../../mips-sde-elf/lib/el/sof\libstdc++.a(eh_exception.o)
 .text._ZNSt9exceptionD2Ev
                0x00000000bd0026d0       0x10 d:/csgcc/bin/../lib/gcc/mips-sde-elf/4.3.2/../../../../mips-sde-elf/lib/el/sof\libstdc++.a(eh_exception.o)
                0x00000000bd0026d0                std::exception::~exception()
 .text._ZNSt9exceptionD1Ev
                0x00000000bd0026e0       0x10 d:/csgcc/bin/../lib/gcc/mips-sde-elf/4.3.2/../../../../mips-sde-elf/lib/el/sof\libstdc++.a(eh_exception.o)
                0x00000000bd0026e0                std::exception::~exception()
 .text._ZNSt13bad_exceptionD2Ev
                0x00000000bd0026f0       0x10 d:/csgcc/bin/../lib/gcc/mips-sde-elf/4.3.2/../../../../mips-sde-elf/lib/el/sof\libstdc++.a(eh_exception.o)
                0x00000000bd0026f0                std::bad_exception::~bad_exception()
 .text._ZNSt13bad_exceptionD1Ev
                0x00000000bd002700       0x10 d:/csgcc/bin/../lib/gcc/mips-sde-elf/4.3.2/../../../../mips-sde-elf/lib/el/sof\libstdc++.a(eh_exception.o)
                0x00000000bd002700                std::bad_exception::~bad_exception()
 .text._ZN10__cxxabiv115__forced_unwindD2Ev
                0x00000000bd002710       0x10 d:/csgcc/bin/../lib/gcc/mips-sde-elf/4.3.2/../../../../mips-sde-elf/lib/el/sof\libstdc++.a(eh_exception.o)
                0x00000000bd002710                __cxxabiv1::__forced_unwind::~__forced_unwind()
 .text._ZN10__cxxabiv115__forced_unwindD1Ev
                0x00000000bd002720       0x10 d:/csgcc/bin/../lib/gcc/mips-sde-elf/4.3.2/../../../../mips-sde-elf/lib/el/sof\libstdc++.a(eh_exception.o)
                0x00000000bd002720                __cxxabiv1::__forced_unwind::~__forced_unwind()
 .text._ZN10__cxxabiv119__foreign_exceptionD2Ev
                0x00000000bd002730       0x10 d:/csgcc/bin/../lib/gcc/mips-sde-elf/4.3.2/../../../../mips-sde-elf/lib/el/sof\libstdc++.a(eh_exception.o)
                0x00000000bd002730                __cxxabiv1::__foreign_exception::~__foreign_exception()
 .text._ZN10__cxxabiv119__foreign_exceptionD1Ev
                0x00000000bd002740       0x10 d:/csgcc/bin/../lib/gcc/mips-sde-elf/4.3.2/../../../../mips-sde-elf/lib/el/sof\libstdc++.a(eh_exception.o)
                0x00000000bd002740                __cxxabiv1::__foreign_exception::~__foreign_exception()
 .text._ZNKSt9exception4whatEv
                0x00000000bd002750        0xc d:/csgcc/bin/../lib/gcc/mips-sde-elf/4.3.2/../../../../mips-sde-elf/lib/el/sof\libstdc++.a(eh_exception.o)
                0x00000000bd002750                std::exception::what() const
 .text._ZNKSt13bad_exception4whatEv
                0x00000000bd00275c        0xc d:/csgcc/bin/../lib/gcc/mips-sde-elf/4.3.2/../../../../mips-sde-elf/lib/el/sof\libstdc++.a(eh_exception.o)
                0x00000000bd00275c                std::bad_exception::what() const
 .text._ZN10__cxxabiv119__foreign_exceptionD0Ev
                0x00000000bd002768       0x28 d:/csgcc/bin/../lib/gcc/mips-sde-elf/4.3.2/../../../../mips-sde-elf/lib/el/sof\libstdc++.a(eh_exception.o)
                0x00000000bd002768                __cxxabiv1::__foreign_exception::~__foreign_exception()
 .text._ZN10__cxxabiv115__forced_unwindD0Ev
                0x00000000bd002790       0x28 d:/csgcc/bin/../lib/gcc/mips-sde-elf/4.3.2/../../../../mips-sde-elf/lib/el/sof\libstdc++.a(eh_exception.o)
                0x00000000bd002790                __cxxabiv1::__forced_unwind::~__forced_unwind()
 .text._ZNSt9exceptionD0Ev
                0x00000000bd0027b8       0x28 d:/csgcc/bin/../lib/gcc/mips-sde-elf/4.3.2/../../../../mips-sde-elf/lib/el/sof\libstdc++.a(eh_exception.o)
                0x00000000bd0027b8                std::exception::~exception()
 .text._ZNSt13bad_exceptionD0Ev
                0x00000000bd0027e0       0x28 d:/csgcc/bin/../lib/gcc/mips-sde-elf/4.3.2/../../../../mips-sde-elf/lib/el/sof\libstdc++.a(eh_exception.o)
                0x00000000bd0027e0                std::bad_exception::~bad_exception()
 .text          0x00000000bd002808        0x0 d:/csgcc/bin/../lib/gcc/mips-sde-elf/4.3.2/../../../../mips-sde-elf/lib/el/sof\libstdc++.a(eh_globals.o)
 .text.__cxa_get_globals_fast
                0x00000000bd002808        0xc d:/csgcc/bin/../lib/gcc/mips-sde-elf/4.3.2/../../../../mips-sde-elf/lib/el/sof\libstdc++.a(eh_globals.o)
                0x00000000bd002808                __cxa_get_globals_fast
 .text.__cxa_get_globals
                0x00000000bd002814        0xc d:/csgcc/bin/../lib/gcc/mips-sde-elf/4.3.2/../../../../mips-sde-elf/lib/el/sof\libstdc++.a(eh_globals.o)
                0x00000000bd002814                __cxa_get_globals
 .text          0x00000000bd002820        0x0 d:/csgcc/bin/../lib/gcc/mips-sde-elf/4.3.2/../../../../mips-sde-elf/lib/el/sof\libstdc++.a(eh_term_handler.o)
 .text          0x00000000bd002820        0x0 d:/csgcc/bin/../lib/gcc/mips-sde-elf/4.3.2/../../../../mips-sde-elf/lib/el/sof\libstdc++.a(pure.o)
 .text.__cxa_pure_virtual
                0x00000000bd002820       0x24 d:/csgcc/bin/../lib/gcc/mips-sde-elf/4.3.2/../../../../mips-sde-elf/lib/el/sof\libstdc++.a(pure.o)
                0x00000000bd002820                __cxa_pure_virtual
 .text          0x00000000bd002844        0x0 d:/csgcc/bin/../lib/gcc/mips-sde-elf/4.3.2/../../../../mips-sde-elf/lib/el/sof\libstdc++.a(si_class_type_info.o)
 .text._ZNK10__cxxabiv120__si_class_type_info20__do_find_public_srcElPKvPKNS_17__class_type_infoES2_
                0x00000000bd002844       0x38 d:/csgcc/bin/../lib/gcc/mips-sde-elf/4.3.2/../../../../mips-sde-elf/lib/el/sof\libstdc++.a(si_class_type_info.o)
                0x00000000bd002844                __cxxabiv1::__si_class_type_info::__do_find_public_src(long, void const*, __cxxabiv1::__class_type_info const*, void const*) const
 .text._ZNK10__cxxabiv120__si_class_type_info12__do_dyncastElNS_17__class_type_info10__sub_kindEPKS1_PKvS4_S6_RNS1_16__dyncast_resultE
                0x00000000bd00287c       0x9c d:/csgcc/bin/../lib/gcc/mips-sde-elf/4.3.2/../../../../mips-sde-elf/lib/el/sof\libstdc++.a(si_class_type_info.o)
                0x00000000bd00287c                __cxxabiv1::__si_class_type_info::__do_dyncast(long, __cxxabiv1::__class_type_info::__sub_kind, __cxxabiv1::__class_type_info const*, void const*, __cxxabiv1::__class_type_info const*, void const*, __cxxabiv1::__class_type_info::__dyncast_result&) const
 .text._ZNK10__cxxabiv120__si_class_type_info11__do_upcastEPKNS_17__class_type_infoEPKvRNS1_15__upcast_resultE
                0x00000000bd002918       0x80 d:/csgcc/bin/../lib/gcc/mips-sde-elf/4.3.2/../../../../mips-sde-elf/lib/el/sof\libstdc++.a(si_class_type_info.o)
                0x00000000bd002918                __cxxabiv1::__si_class_type_info::__do_upcast(__cxxabiv1::__class_type_info const*, void const*, __cxxabiv1::__class_type_info::__upcast_result&) const
 .text._ZN10__cxxabiv120__si_class_type_infoD1Ev
                0x00000000bd002998       0x28 d:/csgcc/bin/../lib/gcc/mips-sde-elf/4.3.2/../../../../mips-sde-elf/lib/el/sof\libstdc++.a(si_class_type_info.o)
                0x00000000bd002998                __cxxabiv1::__si_class_type_info::~__si_class_type_info()
 .text._ZN10__cxxabiv120__si_class_type_infoD2Ev
                0x00000000bd0029c0       0x28 d:/csgcc/bin/../lib/gcc/mips-sde-elf/4.3.2/../../../../mips-sde-elf/lib/el/sof\libstdc++.a(si_class_type_info.o)
                0x00000000bd0029c0                __cxxabiv1::__si_class_type_info::~__si_class_type_info()
 .text._ZN10__cxxabiv120__si_class_type_infoD0Ev
                0x00000000bd0029e8       0x38 d:/csgcc/bin/../lib/gcc/mips-sde-elf/4.3.2/../../../../mips-sde-elf/lib/el/sof\libstdc++.a(si_class_type_info.o)
                0x00000000bd0029e8                __cxxabiv1::__si_class_type_info::~__si_class_type_info()
 .text          0x00000000bd002a20        0x0 d:/csgcc/bin/../lib/gcc/mips-sde-elf/4.3.2/../../../../mips-sde-elf/lib/el/sof\libstdc++.a(tinfo.o)
 .text._ZNSt9type_infoD2Ev
                0x00000000bd002a20       0x10 d:/csgcc/bin/../lib/gcc/mips-sde-elf/4.3.2/../../../../mips-sde-elf/lib/el/sof\libstdc++.a(tinfo.o)
                0x00000000bd002a20                std::type_info::~type_info()
 .text._ZNSt9type_infoD1Ev
                0x00000000bd002a30       0x10 d:/csgcc/bin/../lib/gcc/mips-sde-elf/4.3.2/../../../../mips-sde-elf/lib/el/sof\libstdc++.a(tinfo.o)
                0x00000000bd002a30                std::type_info::~type_info()
 .text._ZNKSt9type_info14__is_pointer_pEv
                0x00000000bd002a40        0x8 d:/csgcc/bin/../lib/gcc/mips-sde-elf/4.3.2/../../../../mips-sde-elf/lib/el/sof\libstdc++.a(tinfo.o)
                0x00000000bd002a40                std::type_info::__is_pointer_p() const
 .text._ZNKSt9type_info15__is_function_pEv
                0x00000000bd002a48        0x8 d:/csgcc/bin/../lib/gcc/mips-sde-elf/4.3.2/../../../../mips-sde-elf/lib/el/sof\libstdc++.a(tinfo.o)
                0x00000000bd002a48                std::type_info::__is_function_p() const
 .text._ZNKSt9type_info10__do_catchEPKS_PPvj
                0x00000000bd002a50       0x14 d:/csgcc/bin/../lib/gcc/mips-sde-elf/4.3.2/../../../../mips-sde-elf/lib/el/sof\libstdc++.a(tinfo.o)
                0x00000000bd002a50                std::type_info::__do_catch(std::type_info const*, void**, unsigned int) const
 .text._ZNKSt9type_info11__do_upcastEPKN10__cxxabiv117__class_type_infoEPPv
                0x00000000bd002a64        0x8 d:/csgcc/bin/../lib/gcc/mips-sde-elf/4.3.2/../../../../mips-sde-elf/lib/el/sof\libstdc++.a(tinfo.o)
                0x00000000bd002a64                std::type_info::__do_upcast(__cxxabiv1::__class_type_info const*, void**) const
 .text._ZNSt9type_infoD0Ev
                0x00000000bd002a6c       0x28 d:/csgcc/bin/../lib/gcc/mips-sde-elf/4.3.2/../../../../mips-sde-elf/lib/el/sof\libstdc++.a(tinfo.o)
                0x00000000bd002a6c                std::type_info::~type_info()
 .text          0x00000000bd002a94        0x0 d:/csgcc/bin/../lib/gcc/mips-sde-elf/4.3.2/../../../../mips-sde-elf/lib/el/sof\libstdc++.a(vterminate.o)
 .text._ZN9__gnu_cxx27__verbose_terminate_handlerEv
                0x00000000bd002a94      0x18c d:/csgcc/bin/../lib/gcc/mips-sde-elf/4.3.2/../../../../mips-sde-elf/lib/el/sof\libstdc++.a(vterminate.o)
                0x00000000bd002a94                __gnu_cxx::__verbose_terminate_handler()
 .text          0x00000000bd002c20     0x3cb4 d:/csgcc/bin/../lib/gcc/mips-sde-elf/4.3.2/../../../../mips-sde-elf/lib/el/sof\libstdc++.a(cp-demangle.o)
                0x00000000bd0066a4                __cxa_demangle
                0x00000000bd006660                __gcclibcxx_demangle_callback
 .text          0x00000000bd0068d4        0x0 d:/csgcc/bin/../lib/gcc/mips-sde-elf/4.3.2/../../../../mips-sde-elf/lib/el/sof\libstdc++.a(class_type_info.o)
 .text._ZNK10__cxxabiv117__class_type_info10__do_catchEPKSt9type_infoPPvj
                0x00000000bd0068d4       0x3c d:/csgcc/bin/../lib/gcc/mips-sde-elf/4.3.2/../../../../mips-sde-elf/lib/el/sof\libstdc++.a(class_type_info.o)
                0x00000000bd0068d4                __cxxabiv1::__class_type_info::__do_catch(std::type_info const*, void**, unsigned int) const
 .text._ZNK10__cxxabiv117__class_type_info11__do_upcastEPKS0_PPv
                0x00000000bd006910       0x6c d:/csgcc/bin/../lib/gcc/mips-sde-elf/4.3.2/../../../../mips-sde-elf/lib/el/sof\libstdc++.a(class_type_info.o)
                0x00000000bd006910                __cxxabiv1::__class_type_info::__do_upcast(__cxxabiv1::__class_type_info const*, void**) const
 .text._ZNK10__cxxabiv117__class_type_info20__do_find_public_srcElPKvPKS0_S2_
                0x00000000bd00697c       0x18 d:/csgcc/bin/../lib/gcc/mips-sde-elf/4.3.2/../../../../mips-sde-elf/lib/el/sof\libstdc++.a(class_type_info.o)
                0x00000000bd00697c                __cxxabiv1::__class_type_info::__do_find_public_src(long, void const*, __cxxabiv1::__class_type_info const*, void const*) const
 .text._ZNK10__cxxabiv117__class_type_info12__do_dyncastElNS0_10__sub_kindEPKS0_PKvS3_S5_RNS0_16__dyncast_resultE
                0x00000000bd006994       0x58 d:/csgcc/bin/../lib/gcc/mips-sde-elf/4.3.2/../../../../mips-sde-elf/lib/el/sof\libstdc++.a(class_type_info.o)
                0x00000000bd006994                __cxxabiv1::__class_type_info::__do_dyncast(long, __cxxabiv1::__class_type_info::__sub_kind, __cxxabiv1::__class_type_info const*, void const*, __cxxabiv1::__class_type_info const*, void const*, __cxxabiv1::__class_type_info::__dyncast_result&) const
 .text._ZNK10__cxxabiv117__class_type_info11__do_upcastEPKS0_PKvRNS0_15__upcast_resultE
                0x00000000bd0069ec       0x30 d:/csgcc/bin/../lib/gcc/mips-sde-elf/4.3.2/../../../../mips-sde-elf/lib/el/sof\libstdc++.a(class_type_info.o)
                0x00000000bd0069ec                __cxxabiv1::__class_type_info::__do_upcast(__cxxabiv1::__class_type_info const*, void const*, __cxxabiv1::__class_type_info::__upcast_result&) const
 .text._ZN10__cxxabiv117__class_type_infoD1Ev
                0x00000000bd006a1c       0x28 d:/csgcc/bin/../lib/gcc/mips-sde-elf/4.3.2/../../../../mips-sde-elf/lib/el/sof\libstdc++.a(class_type_info.o)
                0x00000000bd006a1c                __cxxabiv1::__class_type_info::~__class_type_info()
 .text._ZN10__cxxabiv117__class_type_infoD2Ev
                0x00000000bd006a44       0x28 d:/csgcc/bin/../lib/gcc/mips-sde-elf/4.3.2/../../../../mips-sde-elf/lib/el/sof\libstdc++.a(class_type_info.o)
                0x00000000bd006a44                __cxxabiv1::__class_type_info::~__class_type_info()
 .text._ZN10__cxxabiv117__class_type_infoD0Ev
                0x00000000bd006a6c       0x38 d:/csgcc/bin/../lib/gcc/mips-sde-elf/4.3.2/../../../../mips-sde-elf/lib/el/sof\libstdc++.a(class_type_info.o)
                0x00000000bd006a6c                __cxxabiv1::__class_type_info::~__class_type_info()
 .text          0x00000000bd006aa4        0x0 d:/csgcc/bin/../lib/gcc/mips-sde-elf/4.3.2/../../../../mips-sde-elf/lib/el/sof\libstdc++.a(del_op.o)
 .text._ZdlPv   0x00000000bd006aa4       0x20 d:/csgcc/bin/../lib/gcc/mips-sde-elf/4.3.2/../../../../mips-sde-elf/lib/el/sof\libstdc++.a(del_op.o)
                0x00000000bd006aa4                operator delete(void*)
 .text          0x00000000bd006ac4        0x0 d:/csgcc/bin/../lib/gcc/mips-sde-elf/4.3.2/../../../../mips-sde-elf/lib/el/sof\libstdc++.a(eh_type.o)
 .text.__cxa_current_exception_type
                0x00000000bd006ac4       0x30 d:/csgcc/bin/../lib/gcc/mips-sde-elf/4.3.2/../../../../mips-sde-elf/lib/el/sof\libstdc++.a(eh_type.o)
                0x00000000bd006ac4                __cxa_current_exception_type
 .text          0x00000000bd006af4     0x2918 d:/csgcc/bin/../lib/gcc/mips-sde-elf/4.3.2/el/sof\libgcc.a(unwind-dw2.o)
                0x00000000bd006b5c                _Unwind_GetIPInfo
                0x00000000bd006b54                _Unwind_GetIP
                0x00000000bd009324                _Unwind_Resume_or_Rethrow
                0x00000000bd006b80                _Unwind_GetRegionStart
                0x00000000bd008aa8                _Unwind_Backtrace
                0x00000000bd006b4c                _Unwind_GetCFA
                0x00000000bd008d74                __frame_state_for
                0x00000000bd008fe4                _Unwind_Resume
                0x00000000bd006b98                _Unwind_DeleteException
                0x00000000bd0091b8                _Unwind_RaiseException
                0x00000000bd006b70                _Unwind_SetIP
                0x00000000bd006b90                _Unwind_GetTextRelBase
                0x00000000bd007978                _Unwind_FindEnclosingFunction
                0x00000000bd006b78                _Unwind_GetLanguageSpecificData
                0x00000000bd0090d0                _Unwind_ForcedUnwind
                0x00000000bd006dec                _Unwind_SetGR
                0x00000000bd006e68                _Unwind_GetGR
                0x00000000bd006b88                _Unwind_GetDataRelBase
 .text          0x00000000bd00940c     0x15a8 d:/csgcc/bin/../lib/gcc/mips-sde-elf/4.3.2/el/sof\libgcc.a(unwind-dw2-fde.o)
                0x00000000bd00a72c                _Unwind_Find_FDE
                0x00000000bd00a07c                __register_frame
                0x00000000bd00a024                __register_frame_table
                0x00000000bd00940c                __register_frame_info_bases
                0x00000000bd00a96c                __deregister_frame_info
                0x00000000bd00a898                __deregister_frame_info_bases
                0x00000000bd00949c                __register_frame_info_table_bases
                0x00000000bd00a988                __deregister_frame
                0x00000000bd0094d0                __register_frame_info_table
                0x00000000bd009454                __register_frame_info
 .text          0x00000000bd00a9b4       0x48 d:/csgcc/bin/../lib/gcc/mips-sde-elf/4.3.2/el/sof/crtend.o
 .text          0x00000000bd00a9fc        0x0 d:/csgcc/bin/../lib/gcc/mips-sde-elf/4.3.2/el/sof/crtn.o
 .text          0x00000000bd00a9fc       0x18 d:/csgcc/bin/../lib/gcc/mips-sde-elf/4.3.2/../../../../mips-sde-elf/lib/el/sof\libc.a(lib_a-abort.o)
                0x00000000bd00a9fc                abort
 .text          0x00000000bd00aa14       0x24 d:/csgcc/bin/../lib/gcc/mips-sde-elf/4.3.2/../../../../mips-sde-elf/lib/el/sof\libc.a(lib_a-ctime.o)
                0x00000000bd00aa14                ctime
 .text          0x00000000bd00aa38       0x78 d:/csgcc/bin/../lib/gcc/mips-sde-elf/4.3.2/../../../../mips-sde-elf/lib/el/sof\libc.a(lib_a-fputc.o)
                0x00000000bd00aa38                _fputc_r
                0x00000000bd00aa98                fputc
 .text          0x00000000bd00aab0       0x90 d:/csgcc/bin/../lib/gcc/mips-sde-elf/4.3.2/../../../../mips-sde-elf/lib/el/sof\libc.a(lib_a-fputs.o)
                0x00000000bd00aab0                _fputs_r
                0x00000000bd00ab28                fputs
 .text          0x00000000bd00ab40      0x4b0 d:/csgcc/bin/../lib/gcc/mips-sde-elf/4.3.2/../../../../mips-sde-elf/lib/el/sof\libc.a(lib_a-fvwrite.o)
                0x00000000bd00ab40                __sfvwrite_r
 .text          0x00000000bd00aff0        0x0 d:/csgcc/bin/../lib/gcc/mips-sde-elf/4.3.2/../../../../mips-sde-elf/lib/el/sof\libc.a(lib_a-impure.o)
 .text          0x00000000bd00aff0       0x24 d:/csgcc/bin/../lib/gcc/mips-sde-elf/4.3.2/../../../../mips-sde-elf/lib/el/sof\libc.a(lib_a-lcltime.o)
                0x00000000bd00aff0                localtime
 .text          0x00000000bd00b014       0x1c d:/csgcc/bin/../lib/gcc/mips-sde-elf/4.3.2/../../../../mips-sde-elf/lib/el/sof\libc.a(lib_a-lcltime_r.o)
                0x00000000bd00b014                localtime_r
 .text          0x00000000bd00b030       0x50 d:/csgcc/bin/../lib/gcc/mips-sde-elf/4.3.2/../../../../mips-sde-elf/lib/el/sof\libc.a(lib_a-malloc.o)
                0x00000000bd00b058                malloc
                0x00000000bd00b030                free
 .text          0x00000000bd00b080      0x718 d:/csgcc/bin/../lib/gcc/mips-sde-elf/4.3.2/../../../../mips-sde-elf/lib/el/sof\libc.a(lib_a-mallocr.o)
                0x00000000bd00b080                _malloc_r
 .text          0x00000000bd00b798       0x2c d:/csgcc/bin/../lib/gcc/mips-sde-elf/4.3.2/../../../../mips-sde-elf/lib/el/sof\libc.a(lib_a-memchr.o)
                0x00000000bd00b798                memchr
 .text          0x00000000bd00b7c4       0x38 d:/csgcc/bin/../lib/gcc/mips-sde-elf/4.3.2/../../../../mips-sde-elf/lib/el/sof\libc.a(lib_a-memcmp.o)
                0x00000000bd00b7c4                memcmp
 .text          0x00000000bd00b7fc       0x2c d:/csgcc/bin/../lib/gcc/mips-sde-elf/4.3.2/../../../../mips-sde-elf/lib/el/sof\libc.a(lib_a-memcpy.o)
                0x00000000bd00b7fc                memcpy
 .text          0x00000000bd00b828       0x6c d:/csgcc/bin/../lib/gcc/mips-sde-elf/4.3.2/../../../../mips-sde-elf/lib/el/sof\libc.a(lib_a-memmove.o)
                0x00000000bd00b828                memmove
 .text          0x00000000bd00b894       0x24 d:/csgcc/bin/../lib/gcc/mips-sde-elf/4.3.2/../../../../mips-sde-elf/lib/el/sof\libc.a(lib_a-memset.o)
                0x00000000bd00b894                memset
 .text          0x00000000bd00b8b8      0x6dc d:/csgcc/bin/../lib/gcc/mips-sde-elf/4.3.2/../../../../mips-sde-elf/lib/el/sof\libc.a(lib_a-mktm_r.o)
                0x00000000bd00b8b8                __tzcalc_limits
                0x00000000bd00bae4                _mktm_r
 .text          0x00000000bd00bf94       0x10 d:/csgcc/bin/../lib/gcc/mips-sde-elf/4.3.2/../../../../mips-sde-elf/lib/el/sof\libc.a(lib_a-mlock.o)
                0x00000000bd00bf9c                __malloc_unlock
                0x00000000bd00bf94                __malloc_lock
 .text          0x00000000bd00bfa4       0x78 d:/csgcc/bin/../lib/gcc/mips-sde-elf/4.3.2/../../../../mips-sde-elf/lib/el/sof\libc.a(lib_a-printf.o)
                0x00000000bd00bfa4                printf
                0x00000000bd00bfe8                _printf_r
 .text          0x00000000bd00c01c       0xf0 d:/csgcc/bin/../lib/gcc/mips-sde-elf/4.3.2/../../../../mips-sde-elf/lib/el/sof\libc.a(lib_a-putc.o)
                0x00000000bd00c01c                _putc_r
                0x00000000bd00c0f4                putc
 .text          0x00000000bd00c10c       0x2c d:/csgcc/bin/../lib/gcc/mips-sde-elf/4.3.2/../../../../mips-sde-elf/lib/el/sof\libc.a(lib_a-realloc.o)
                0x00000000bd00c10c                realloc
 .text          0x00000000bd00c138      0x554 d:/csgcc/bin/../lib/gcc/mips-sde-elf/4.3.2/../../../../mips-sde-elf/lib/el/sof\libc.a(lib_a-reallocr.o)
                0x00000000bd00c138                _realloc_r
 .text          0x00000000bd00c68c       0x58 d:/csgcc/bin/../lib/gcc/mips-sde-elf/4.3.2/../../../../mips-sde-elf/lib/el/sof\libc.a(lib_a-sbrkr.o)
                0x00000000bd00c68c                _sbrk_r
 .text          0x00000000bd00c6e4      0x278 d:/csgcc/bin/../lib/gcc/mips-sde-elf/4.3.2/../../../../mips-sde-elf/lib/el/sof\libc.a(lib_a-signal.o)
                0x00000000bd00c8c0                _signal_r
                0x00000000bd00c6e4                _raise_r
                0x00000000bd00c814                __sigtramp_r
                0x00000000bd00c944                signal
                0x00000000bd00c808                _init_signal
                0x00000000bd00c7a8                _init_signal_r
                0x00000000bd00c8b0                __sigtramp
                0x00000000bd00c798                raise
 .text          0x00000000bd00c95c       0x78 d:/csgcc/bin/../lib/gcc/mips-sde-elf/4.3.2/../../../../mips-sde-elf/lib/el/sof\libc.a(lib_a-signalr.o)
                0x00000000bd00c978                _kill_r
                0x00000000bd00c95c                _getpid_r
 .text          0x00000000bd00c9d4       0x68 d:/csgcc/bin/../lib/gcc/mips-sde-elf/4.3.2/../../../../mips-sde-elf/lib/el/sof\libc.a(lib_a-strcmp.o)
                0x00000000bd00c9d4                strcmp
 .text          0x00000000bd00ca3c       0x20 d:/csgcc/bin/../lib/gcc/mips-sde-elf/4.3.2/../../../../mips-sde-elf/lib/el/sof\libc.a(lib_a-strcpy.o)
                0x00000000bd00ca3c                strcpy
 .text          0x00000000bd00ca5c       0x18 d:/csgcc/bin/../lib/gcc/mips-sde-elf/4.3.2/../../../../mips-sde-elf/lib/el/sof\libc.a(lib_a-strlen.o)
                0x00000000bd00ca5c                strlen
 .text          0x00000000bd00ca74       0x4c d:/csgcc/bin/../lib/gcc/mips-sde-elf/4.3.2/../../../../mips-sde-elf/lib/el/sof\libc.a(lib_a-strncmp.o)
                0x00000000bd00ca74                strncmp
 .text          0x00000000bd00cac0        0x0 d:/csgcc/bin/../lib/gcc/mips-sde-elf/4.3.2/../../../../mips-sde-elf/lib/el/sof\libc.a(lib_a-tzvars.o)
 .text          0x00000000bd00cac0     0x19f8 d:/csgcc/bin/../lib/gcc/mips-sde-elf/4.3.2/../../../../mips-sde-elf/lib/el/sof\libc.a(lib_a-vfprintf.o)
                0x00000000bd00cb00                _vfprintf_r
                0x00000000bd00e498                vfprintf
 .text          0x00000000bd00e4b8      0x148 d:/csgcc/bin/../lib/gcc/mips-sde-elf/4.3.2/../../../../mips-sde-elf/lib/el/sof\libc.a(lib_a-wbuf.o)
                0x00000000bd00e4b8                __swbuf_r
                0x00000000bd00e5e8                __swbuf
 .text          0x00000000bd00e600      0x138 d:/csgcc/bin/../lib/gcc/mips-sde-elf/4.3.2/../../../../mips-sde-elf/lib/el/sof\libc.a(lib_a-wsetup.o)
                0x00000000bd00e600                __swsetup_r
 .text          0x00000000bd00e738       0x24 d:/csgcc/bin/../lib/gcc/mips-sde-elf/4.3.2/../../../../mips-sde-elf/lib/el/sof\libc.a(lib_a-asctime.o)
                0x00000000bd00e738                asctime
 .text          0x00000000bd00e75c       0x8c d:/csgcc/bin/../lib/gcc/mips-sde-elf/4.3.2/../../../../mips-sde-elf/lib/el/sof\libc.a(lib_a-asctime_r.o)
                0x00000000bd00e75c                asctime_r
 .text          0x00000000bd00e7e8     0x1544 d:/csgcc/bin/../lib/gcc/mips-sde-elf/4.3.2/../../../../mips-sde-elf/lib/el/sof\libc.a(lib_a-dtoa.o)
                0x00000000bd00e9ec                _dtoa_r
 .text          0x00000000bd00fd2c      0x204 d:/csgcc/bin/../lib/gcc/mips-sde-elf/4.3.2/../../../../mips-sde-elf/lib/el/sof\libc.a(lib_a-fflush.o)
                0x00000000bd00feec                fflush
                0x00000000bd00fd2c                _fflush_r
 .text          0x00000000bd00ff30      0x29c d:/csgcc/bin/../lib/gcc/mips-sde-elf/4.3.2/../../../../mips-sde-elf/lib/el/sof\libc.a(lib_a-findfp.o)
                0x00000000bd00ff30                __sinit
                0x00000000bd01008c                __sfmoreglue
                0x00000000bd010064                _cleanup
                0x00000000bd010044                _cleanup_r
                0x00000000bd0100f4                __sfp
 .text          0x00000000bd0101cc      0x39c d:/csgcc/bin/../lib/gcc/mips-sde-elf/4.3.2/../../../../mips-sde-elf/lib/el/sof\libc.a(lib_a-freer.o)
                0x00000000bd0102ec                _free_r
                0x00000000bd0101cc                _malloc_trim_r
 .text          0x00000000bd010568      0x150 d:/csgcc/bin/../lib/gcc/mips-sde-elf/4.3.2/../../../../mips-sde-elf/lib/el/sof\libc.a(lib_a-fwalk.o)
                0x00000000bd010568                _fwalk
                0x00000000bd010608                _fwalk_reent
 .text          0x00000000bd0106b8        0xc d:/csgcc/bin/../lib/gcc/mips-sde-elf/4.3.2/../../../../mips-sde-elf/lib/el/sof\libc.a(lib_a-gettzinfo.o)
                0x00000000bd0106b8                __gettzinfo
 .text          0x00000000bd0106c4       0xc0 d:/csgcc/bin/../lib/gcc/mips-sde-elf/4.3.2/../../../../mips-sde-elf/lib/el/sof\libc.a(lib_a-locale.o)
                0x00000000bd0106e8                _setlocale_r
                0x00000000bd0106c4                __locale_charset
                0x00000000bd0106d0                _localeconv_r
                0x00000000bd01076c                setlocale
                0x00000000bd0106dc                localeconv
 .text          0x00000000bd010784      0x174 d:/csgcc/bin/../lib/gcc/mips-sde-elf/4.3.2/../../../../mips-sde-elf/lib/el/sof\libc.a(lib_a-makebuf.o)
                0x00000000bd010784                __smakebuf_r
 .text          0x00000000bd0108f8      0xfe8 d:/csgcc/bin/../lib/gcc/mips-sde-elf/4.3.2/../../../../mips-sde-elf/lib/el/sof\libc.a(lib_a-mprec.o)
                0x00000000bd010cd8                _mprec_log10
                0x00000000bd010dd8                __any_on
                0x00000000bd010e68                _Balloc
                0x00000000bd010c38                __ratio
                0x00000000bd01154c                __i2b
                0x00000000bd010b28                __b2d
                0x00000000bd0117b4                __s2b
                0x00000000bd010a58                __mcmp
                0x00000000bd010924                __hi0bits
                0x00000000bd011698                __pow5mult
                0x00000000bd011224                __lshift
                0x00000000bd011368                __multiply
                0x00000000bd010f14                __d2b
                0x00000000bd010d70                __copybits
                0x00000000bd010ac4                __ulp
                0x00000000bd011064                __mdiff
                0x00000000bd01099c                __lo0bits
                0x00000000bd011580                __multadd
                0x00000000bd0108f8                _Bfree
 .text          0x00000000bd0118e0      0x210 d:/csgcc/bin/../lib/gcc/mips-sde-elf/4.3.2/../../../../mips-sde-elf/lib/el/sof\libc.a(lib_a-reent.o)
                0x00000000bd011984                cleanup_glue
                0x00000000bd0119cc                _reclaim_reent
                0x00000000bd0118e0                _wrapup_reent
 .text          0x00000000bd011af0       0x38 d:/csgcc/bin/../lib/gcc/mips-sde-elf/4.3.2/../../../../mips-sde-elf/lib/el/sof\libc.a(lib_a-s_isinfd.o)
                0x00000000bd011af0                __isinfd
 .text          0x00000000bd011b28       0x2c d:/csgcc/bin/../lib/gcc/mips-sde-elf/4.3.2/../../../../mips-sde-elf/lib/el/sof\libc.a(lib_a-s_isnand.o)
                0x00000000bd011b28                __isnand
 .text          0x00000000bd011b54       0xd0 d:/csgcc/bin/../lib/gcc/mips-sde-elf/4.3.2/../../../../mips-sde-elf/lib/el/sof\libc.a(lib_a-sprintf.o)
                0x00000000bd011bc4                _sprintf_r
                0x00000000bd011b54                sprintf
 .text          0x00000000bd011c24      0x14c d:/csgcc/bin/../lib/gcc/mips-sde-elf/4.3.2/../../../../mips-sde-elf/lib/el/sof\libc.a(lib_a-stdio.o)
                0x00000000bd011c44                __sseek
                0x00000000bd011d1c                __sread
                0x00000000bd011c24                __sclose
                0x00000000bd011c9c                __swrite
 .text          0x00000000bd011d70       0x60 d:/csgcc/bin/../lib/gcc/mips-sde-elf/4.3.2/../../../../mips-sde-elf/lib/el/sof\libc.a(lib_a-writer.o)
                0x00000000bd011d70                _write_r
 .text          0x00000000bd011dd0       0xa4 d:/csgcc/bin/../lib/gcc/mips-sde-elf/4.3.2/../../../../mips-sde-elf/lib/el/sof\libc.a(lib_a-callocr.o)
                0x00000000bd011dd0                _calloc_r
 .text          0x00000000bd011e74       0x58 d:/csgcc/bin/../lib/gcc/mips-sde-elf/4.3.2/../../../../mips-sde-elf/lib/el/sof\libc.a(lib_a-closer.o)
                0x00000000bd011e74                _close_r
 .text          0x00000000bd011ecc      0x108 d:/csgcc/bin/../lib/gcc/mips-sde-elf/4.3.2/../../../../mips-sde-elf/lib/el/sof\libc.a(lib_a-fclose.o)
                0x00000000bd011ecc                _fclose_r
                0x00000000bd011fc4                fclose
 .text          0x00000000bd011fd4       0x5c d:/csgcc/bin/../lib/gcc/mips-sde-elf/4.3.2/../../../../mips-sde-elf/lib/el/sof\libc.a(lib_a-fstatr.o)
                0x00000000bd011fd4                _fstat_r
 .text          0x00000000bd012030       0x58 d:/csgcc/bin/../lib/gcc/mips-sde-elf/4.3.2/../../../../mips-sde-elf/lib/el/sof\libc.a(lib_a-isattyr.o)
                0x00000000bd012030                _isatty_r
 .text          0x00000000bd012088       0x60 d:/csgcc/bin/../lib/gcc/mips-sde-elf/4.3.2/../../../../mips-sde-elf/lib/el/sof\libc.a(lib_a-lseekr.o)
                0x00000000bd012088                _lseek_r
 .text          0x00000000bd0120e8       0x60 d:/csgcc/bin/../lib/gcc/mips-sde-elf/4.3.2/../../../../mips-sde-elf/lib/el/sof\libc.a(lib_a-readr.o)
                0x00000000bd0120e8                _read_r
 .text          0x00000000bd012148      0x100 d:/csgcc/bin/../lib/gcc/mips-sde-elf/4.3.2/../../../../mips-sde-elf/lib/el/sof\libcs3.a(start_c.o)
                0x00000000bd012148                __cs3_start_c
 .text          0x00000000bd012248        0x8 d:/csgcc/bin/../lib/gcc/mips-sde-elf/4.3.2/../../../../mips-sde-elf/lib/el/sof\libcs3unhosted.a(unhosted-_exit.o)
                0x00000000bd012248                _exit
 .text          0x00000000bd012250       0x28 d:/csgcc/bin/../lib/gcc/mips-sde-elf/4.3.2/../../../../mips-sde-elf/lib/el/sof\libcs3unhosted.a(unhosted-close.o)
                0x00000000bd012250                close
 .text          0x00000000bd012278       0x28 d:/csgcc/bin/../lib/gcc/mips-sde-elf/4.3.2/../../../../mips-sde-elf/lib/el/sof\libcs3unhosted.a(unhosted-fstat.o)
                0x00000000bd012278                fstat
 .text          0x00000000bd0122a0       0x28 d:/csgcc/bin/../lib/gcc/mips-sde-elf/4.3.2/../../../../mips-sde-elf/lib/el/sof\libcs3unhosted.a(unhosted-isatty.o)
                0x00000000bd0122a0                isatty
 .text          0x00000000bd0122c8       0x28 d:/csgcc/bin/../lib/gcc/mips-sde-elf/4.3.2/../../../../mips-sde-elf/lib/el/sof\libcs3unhosted.a(unhosted-lseek.o)
                0x00000000bd0122c8                lseek
 .text          0x00000000bd0122f0       0x2c d:/csgcc/bin/../lib/gcc/mips-sde-elf/4.3.2/../../../../mips-sde-elf/lib/el/sof\libcs3unhosted.a(unhosted-open.o)
                0x00000000bd0122f0                open
 .text          0x00000000bd01231c       0x70 d:/csgcc/bin/../lib/gcc/mips-sde-elf/4.3.2/../../../../mips-sde-elf/lib/el/sof\libcs3unhosted.a(unhosted-sbrk.o)
                0x00000000bd01231c                sbrk
 .text          0x00000000bd01238c        0x8 d:/csgcc/bin/../lib/gcc/mips-sde-elf/4.3.2/../../../../mips-sde-elf/lib/el/sof\libcs3unhosted.a(unhosted-getpid.o)
                0x00000000bd01238c                getpid
 .text          0x00000000bd012394       0x28 d:/csgcc/bin/../lib/gcc/mips-sde-elf/4.3.2/../../../../mips-sde-elf/lib/el/sof\libcs3unhosted.a(unhosted-kill.o)
                0x00000000bd012394                kill
 .text          0x00000000bd0123bc       0x24 d:/csgcc/bin/../lib/gcc/mips-sde-elf/4.3.2/../../../../mips-sde-elf/lib/el/sof\libcs3unhosted.a(start.o)
                0x00000000bd0123bc                _start
 .text          0x00000000bd0123e0      0x40c d:/csgcc/bin/../lib/gcc/mips-sde-elf/4.3.2/el/sof\libgcc.a(_udivdi3.o)
                0x00000000bd0123e0                __udivdi3
 .text          0x00000000bd0127ec      0x3fc d:/csgcc/bin/../lib/gcc/mips-sde-elf/4.3.2/el/sof\libgcc.a(_umoddi3.o)
                0x00000000bd0127ec                __umoddi3
 .text          0x00000000bd012be8      0x4a0 d:/csgcc/bin/../lib/gcc/mips-sde-elf/4.3.2/el/sof\libgcc.a(_addsub_df.o)
                0x00000000bd01301c                __adddf3
                0x00000000bd012fa4                __subdf3
 .text          0x00000000bd013088      0x2bc d:/csgcc/bin/../lib/gcc/mips-sde-elf/4.3.2/el/sof\libgcc.a(_mul_df.o)
                0x00000000bd013088                __muldf3
 .text          0x00000000bd013344      0x20c d:/csgcc/bin/../lib/gcc/mips-sde-elf/4.3.2/el/sof\libgcc.a(_div_df.o)
                0x00000000bd013344                __divdf3
 .text          0x00000000bd013550       0x84 d:/csgcc/bin/../lib/gcc/mips-sde-elf/4.3.2/el/sof\libgcc.a(_eq_df.o)
                0x00000000bd013550                __eqdf2
 .text          0x00000000bd0135d4       0x84 d:/csgcc/bin/../lib/gcc/mips-sde-elf/4.3.2/el/sof\libgcc.a(_ne_df.o)
                0x00000000bd0135d4                __nedf2
 .text          0x00000000bd013658       0x88 d:/csgcc/bin/../lib/gcc/mips-sde-elf/4.3.2/el/sof\libgcc.a(_gt_df.o)
                0x00000000bd013658                __gtdf2
 .text          0x00000000bd0136e0       0x88 d:/csgcc/bin/../lib/gcc/mips-sde-elf/4.3.2/el/sof\libgcc.a(_ge_df.o)
                0x00000000bd0136e0                __gedf2
 .text          0x00000000bd013768       0x84 d:/csgcc/bin/../lib/gcc/mips-sde-elf/4.3.2/el/sof\libgcc.a(_lt_df.o)
                0x00000000bd013768                __ltdf2
 .text          0x00000000bd0137ec       0xbc d:/csgcc/bin/../lib/gcc/mips-sde-elf/4.3.2/el/sof\libgcc.a(_si_to_df.o)
                0x00000000bd0137ec                __floatsidf
 .text          0x00000000bd0138a8       0xb4 d:/csgcc/bin/../lib/gcc/mips-sde-elf/4.3.2/el/sof\libgcc.a(_df_to_si.o)
                0x00000000bd0138a8                __fixdfsi
 .text          0x00000000bd01395c        0x0 d:/csgcc/bin/../lib/gcc/mips-sde-elf/4.3.2/el/sof\libgcc.a(_thenan_df.o)
 .text          0x00000000bd01395c      0x11c d:/csgcc/bin/../lib/gcc/mips-sde-elf/4.3.2/el/sof\libgcc.a(_usi_to_df.o)
                0x00000000bd01395c                __floatunsidf
 .text          0x00000000bd013a78       0x48 d:/csgcc/bin/../lib/gcc/mips-sde-elf/4.3.2/el/sof\libgcc.a(_lshrdi3.o)
                0x00000000bd013a78                __lshrdi3
 .text          0x00000000bd013ac0       0x40 d:/csgcc/bin/../lib/gcc/mips-sde-elf/4.3.2/el/sof\libgcc.a(_ashldi3.o)
                0x00000000bd013ac0                __ashldi3
 .text          0x00000000bd013b00       0x3c d:/csgcc/bin/../lib/gcc/mips-sde-elf/4.3.2/el/sof\libgcc.a(_ucmpdi2.o)
                0x00000000bd013b00                __ucmpdi2
 .text          0x00000000bd013b3c      0x244 d:/csgcc/bin/../lib/gcc/mips-sde-elf/4.3.2/el/sof\libgcc.a(_pack_df.o)
                0x00000000bd013b3c                __pack_d
 .text          0x00000000bd013d80       0xec d:/csgcc/bin/../lib/gcc/mips-sde-elf/4.3.2/el/sof\libgcc.a(_unpack_df.o)
                0x00000000bd013d80                __unpack_d
 .text          0x00000000bd013e6c      0x110 d:/csgcc/bin/../lib/gcc/mips-sde-elf/4.3.2/el/sof\libgcc.a(_fpcmp_parts_df.o)
                0x00000000bd013e6c                __fpcmp_parts_d
 .text          0x00000000bd013f7c        0xc d:/csgcc/bin/../lib/gcc/mips-sde-elf/4.3.2/../../../../mips-sde-elf/lib/el/sof\libc.a(lib_a-errno.o)
                0x00000000bd013f7c                __errno
 .text          0x00000000bd013f88       0xa8 d:/csgcc/bin/../lib/gcc/mips-sde-elf/4.3.2/../../../../mips-sde-elf/lib/el/sof\libc.a(lib_a-init.o)
                0x00000000bd013f88                __libc_init_array
 .text          0x00000000bd014030        0x0 d:/csgcc/bin/../lib/gcc/mips-sde-elf/4.3.2/../../../../mips-sde-elf/lib/el/sof\libcs3.a(heap.o)
                0x00000000bd014030                . = ALIGN (0x4)
 *crtbegin.o(.jcr)
 .jcr           0x00000000bd014030        0x0 d:/csgcc/bin/../lib/gcc/mips-sde-elf/4.3.2/el/sof/crtbegin.o
 *(EXCLUDE_FILE(*crtend.o) .jcr)
 *crtend.o(.jcr)
 .jcr           0x00000000bd014030        0x4 d:/csgcc/bin/../lib/gcc/mips-sde-elf/4.3.2/el/sof/crtend.o
                0x00000000bd014034                . = ALIGN (0x4)
 *(.gcc_except_table .gcc_except_table.*)
 .gcc_except_table.__cxa_call_unexpected
                0x00000000bd014034       0x1c d:/csgcc/bin/../lib/gcc/mips-sde-elf/4.3.2/../../../../mips-sde-elf/lib/el/sof\libstdc++.a(eh_personality.o)
 .gcc_except_table.__gxx_personality_v0
                0x00000000bd014050       0x24 d:/csgcc/bin/../lib/gcc/mips-sde-elf/4.3.2/../../../../mips-sde-elf/lib/el/sof\libstdc++.a(eh_personality.o)
 .gcc_except_table._ZN10__cxxabiv111__terminateEPFvvE
                0x00000000bd014074       0x18 d:/csgcc/bin/../lib/gcc/mips-sde-elf/4.3.2/../../../../mips-sde-elf/lib/el/sof\libstdc++.a(eh_terminate.o)
 .gcc_except_table.__cxa_allocate_exception
                0x00000000bd01408c       0x18 d:/csgcc/bin/../lib/gcc/mips-sde-elf/4.3.2/../../../../mips-sde-elf/lib/el/sof\libstdc++.a(eh_alloc.o)
 .gcc_except_table.__cxa_begin_catch
                0x00000000bd0140a4       0x18 d:/csgcc/bin/../lib/gcc/mips-sde-elf/4.3.2/../../../../mips-sde-elf/lib/el/sof\libstdc++.a(eh_catch.o)
 .gcc_except_table._ZN9__gnu_cxx27__verbose_terminate_handlerEv
                0x00000000bd0140bc       0x28 d:/csgcc/bin/../lib/gcc/mips-sde-elf/4.3.2/../../../../mips-sde-elf/lib/el/sof\libstdc++.a(vterminate.o)

.eh_frame_hdr
 *(.eh_frame_hdr)

.eh_frame       0x00000000bd0140e4      0x714
 *(.eh_frame)
 .eh_frame      0x00000000bd0140e4        0x0 d:/csgcc/bin/../lib/gcc/mips-sde-elf/4.3.2/el/sof/crtbegin.o
 .eh_frame      0x00000000bd0140e4       0xa8 obj/CPP_Demo.o
 .eh_frame      0x00000000bd01418c      0x158 d:/csgcc/bin/../lib/gcc/mips-sde-elf/4.3.2/../../../../mips-sde-elf/lib/el/sof\libstdc++.a(eh_personality.o)
 .eh_frame      0x00000000bd0142e4       0x74 d:/csgcc/bin/../lib/gcc/mips-sde-elf/4.3.2/../../../../mips-sde-elf/lib/el/sof\libstdc++.a(eh_terminate.o)
                                         0x90 (size before relaxing)
 .eh_frame      0x00000000bd014358       0x54 d:/csgcc/bin/../lib/gcc/mips-sde-elf/4.3.2/../../../../mips-sde-elf/lib/el/sof\libstdc++.a(eh_throw.o)
                                         0x6c (size before relaxing)
 .eh_frame      0x00000000bd0143ac       0x20 d:/csgcc/bin/../lib/gcc/mips-sde-elf/4.3.2/../../../../mips-sde-elf/lib/el/sof\libstdc++.a(eh_alloc.o)
                                         0x3c (size before relaxing)
 .eh_frame      0x00000000bd0143cc       0x1c d:/csgcc/bin/../lib/gcc/mips-sde-elf/4.3.2/../../../../mips-sde-elf/lib/el/sof\libstdc++.a(eh_call.o)
                                         0x34 (size before relaxing)
 .eh_frame      0x00000000bd0143e8       0x3c d:/csgcc/bin/../lib/gcc/mips-sde-elf/4.3.2/../../../../mips-sde-elf/lib/el/sof\libstdc++.a(eh_catch.o)
                                         0x58 (size before relaxing)
 .eh_frame      0x00000000bd014424       0x18 d:/csgcc/bin/../lib/gcc/mips-sde-elf/4.3.2/../../../../mips-sde-elf/lib/el/sof\libstdc++.a(pure.o)
                                         0x30 (size before relaxing)
 .eh_frame      0x00000000bd01443c       0x6c d:/csgcc/bin/../lib/gcc/mips-sde-elf/4.3.2/../../../../mips-sde-elf/lib/el/sof\libstdc++.a(si_class_type_info.o)
                                         0x84 (size before relaxing)
 .eh_frame      0x00000000bd0144a8       0x24 d:/csgcc/bin/../lib/gcc/mips-sde-elf/4.3.2/../../../../mips-sde-elf/lib/el/sof\libstdc++.a(vterminate.o)
                                         0x40 (size before relaxing)
 .eh_frame      0x00000000bd0144cc       0x7c d:/csgcc/bin/../lib/gcc/mips-sde-elf/4.3.2/../../../../mips-sde-elf/lib/el/sof\libstdc++.a(class_type_info.o)
                                         0x94 (size before relaxing)
 .eh_frame      0x00000000bd014548      0x1f0 d:/csgcc/bin/../lib/gcc/mips-sde-elf/4.3.2/el/sof\libgcc.a(unwind-dw2.o)
 .eh_frame      0x00000000bd014738       0x9c d:/csgcc/bin/../lib/gcc/mips-sde-elf/4.3.2/el/sof\libgcc.a(unwind-dw2-fde.o)
                                         0xac (size before relaxing)
 .eh_frame      0x00000000bd0147d4        0x4 d:/csgcc/bin/../lib/gcc/mips-sde-elf/4.3.2/el/sof/crtend.o
 .eh_frame      0x00000000bd0147d8       0x10 d:/csgcc/bin/../lib/gcc/mips-sde-elf/4.3.2/el/sof\libgcc.a(_udivdi3.o)
                                         0x20 (size before relaxing)
 .eh_frame      0x00000000bd0147e8       0x10 d:/csgcc/bin/../lib/gcc/mips-sde-elf/4.3.2/el/sof\libgcc.a(_umoddi3.o)
                                         0x20 (size before relaxing)

.sdeosabi
 *(.sdeosabi)

.rodata         0x00000000bd0147f8     0x1940
 *(.rodata .rodata.* .gnu.linkonce.r.*)
 .rodata        0x00000000bd0147f8       0x20 obj/CPP_Demo.o
 .rodata._ZL28read_encoded_value_with_basehjPKhPj
                0x00000000bd014818       0x34 d:/csgcc/bin/../lib/gcc/mips-sde-elf/4.3.2/../../../../mips-sde-elf/lib/el/sof\libstdc++.a(eh_personality.o)
 .rodata.str1.4
                0x00000000bd01484c       0x23 d:/csgcc/bin/../lib/gcc/mips-sde-elf/4.3.2/../../../../mips-sde-elf/lib/el/sof\libstdc++.a(eh_exception.o)
                                         0x24 (size before relaxing)
 *fill*         0x00000000bd01486f        0x1 00
 .rodata._ZTVN10__cxxabiv119__foreign_exceptionE
                0x00000000bd014870       0x18 d:/csgcc/bin/../lib/gcc/mips-sde-elf/4.3.2/../../../../mips-sde-elf/lib/el/sof\libstdc++.a(eh_exception.o)
                0x00000000bd014870                vtable for __cxxabiv1::__foreign_exception
 .rodata._ZTVN10__cxxabiv115__forced_unwindE
                0x00000000bd014888       0x18 d:/csgcc/bin/../lib/gcc/mips-sde-elf/4.3.2/../../../../mips-sde-elf/lib/el/sof\libstdc++.a(eh_exception.o)
                0x00000000bd014888                vtable for __cxxabiv1::__forced_unwind
 .rodata._ZTVSt13bad_exception
                0x00000000bd0148a0       0x18 d:/csgcc/bin/../lib/gcc/mips-sde-elf/4.3.2/../../../../mips-sde-elf/lib/el/sof\libstdc++.a(eh_exception.o)
                0x00000000bd0148a0                vtable for std::bad_exception
 .rodata._ZTVSt9exception
                0x00000000bd0148b8       0x18 d:/csgcc/bin/../lib/gcc/mips-sde-elf/4.3.2/../../../../mips-sde-elf/lib/el/sof\libstdc++.a(eh_exception.o)
                0x00000000bd0148b8                vtable for std::exception
 .rodata._ZTSN10__cxxabiv119__foreign_exceptionE
                0x00000000bd0148d0       0x24 d:/csgcc/bin/../lib/gcc/mips-sde-elf/4.3.2/../../../../mips-sde-elf/lib/el/sof\libstdc++.a(eh_exception.o)
                0x00000000bd0148d0                typeinfo name for __cxxabiv1::__foreign_exception
 .rodata._ZTSN10__cxxabiv115__forced_unwindE
                0x00000000bd0148f4       0x20 d:/csgcc/bin/../lib/gcc/mips-sde-elf/4.3.2/../../../../mips-sde-elf/lib/el/sof\libstdc++.a(eh_exception.o)
                0x00000000bd0148f4                typeinfo name for __cxxabiv1::__forced_unwind
 .rodata._ZTSSt13bad_exception
                0x00000000bd014914       0x14 d:/csgcc/bin/../lib/gcc/mips-sde-elf/4.3.2/../../../../mips-sde-elf/lib/el/sof\libstdc++.a(eh_exception.o)
                0x00000000bd014914                typeinfo name for std::bad_exception
 .rodata._ZTISt13bad_exception
                0x00000000bd014928        0xc d:/csgcc/bin/../lib/gcc/mips-sde-elf/4.3.2/../../../../mips-sde-elf/lib/el/sof\libstdc++.a(eh_exception.o)
                0x00000000bd014928                typeinfo for std::bad_exception
 .rodata._ZTSSt9exception
                0x00000000bd014934       0x10 d:/csgcc/bin/../lib/gcc/mips-sde-elf/4.3.2/../../../../mips-sde-elf/lib/el/sof\libstdc++.a(eh_exception.o)
                0x00000000bd014934                typeinfo name for std::exception
 .rodata.str1.4
                0x00000000bd014944       0x1c d:/csgcc/bin/../lib/gcc/mips-sde-elf/4.3.2/../../../../mips-sde-elf/lib/el/sof\libstdc++.a(pure.o)
 .rodata._ZTVN10__cxxabiv120__si_class_type_infoE
                0x00000000bd014960       0x30 d:/csgcc/bin/../lib/gcc/mips-sde-elf/4.3.2/../../../../mips-sde-elf/lib/el/sof\libstdc++.a(si_class_type_info.o)
                0x00000000bd014960                vtable for __cxxabiv1::__si_class_type_info
 .rodata._ZTSN10__cxxabiv120__si_class_type_infoE
                0x00000000bd014990       0x28 d:/csgcc/bin/../lib/gcc/mips-sde-elf/4.3.2/../../../../mips-sde-elf/lib/el/sof\libstdc++.a(si_class_type_info.o)
                0x00000000bd014990                typeinfo name for __cxxabiv1::__si_class_type_info
 .rodata._ZTIN10__cxxabiv120__si_class_type_infoE
                0x00000000bd0149b8        0xc d:/csgcc/bin/../lib/gcc/mips-sde-elf/4.3.2/../../../../mips-sde-elf/lib/el/sof\libstdc++.a(si_class_type_info.o)
                0x00000000bd0149b8                typeinfo for __cxxabiv1::__si_class_type_info
 *fill*         0x00000000bd0149c4        0x4 00
 .rodata._ZTVSt9type_info
                0x00000000bd0149c8       0x20 d:/csgcc/bin/../lib/gcc/mips-sde-elf/4.3.2/../../../../mips-sde-elf/lib/el/sof\libstdc++.a(tinfo.o)
                0x00000000bd0149c8                vtable for std::type_info
 .rodata._ZTSSt9type_info
                0x00000000bd0149e8       0x10 d:/csgcc/bin/../lib/gcc/mips-sde-elf/4.3.2/../../../../mips-sde-elf/lib/el/sof\libstdc++.a(tinfo.o)
                0x00000000bd0149e8                typeinfo name for std::type_info
 .rodata.str1.4
                0x00000000bd0149f8       0x92 d:/csgcc/bin/../lib/gcc/mips-sde-elf/4.3.2/../../../../mips-sde-elf/lib/el/sof\libstdc++.a(vterminate.o)
                                         0x94 (size before relaxing)
 *fill*         0x00000000bd014a8a        0x2 00
 .rodata        0x00000000bd014a8c      0x980 d:/csgcc/bin/../lib/gcc/mips-sde-elf/4.3.2/../../../../mips-sde-elf/lib/el/sof\libstdc++.a(cp-demangle.o)
 .rodata.str1.4
                0x00000000bd01540c      0x627 d:/csgcc/bin/../lib/gcc/mips-sde-elf/4.3.2/../../../../mips-sde-elf/lib/el/sof\libstdc++.a(cp-demangle.o)
                                        0x650 (size before relaxing)
 *fill*         0x00000000bd015a33        0x5 00
 .rodata._ZTVN10__cxxabiv117__class_type_infoE
                0x00000000bd015a38       0x30 d:/csgcc/bin/../lib/gcc/mips-sde-elf/4.3.2/../../../../mips-sde-elf/lib/el/sof\libstdc++.a(class_type_info.o)
                0x00000000bd015a38                vtable for __cxxabiv1::__class_type_info
 .rodata._ZTSN10__cxxabiv117__class_type_infoE
                0x00000000bd015a68       0x24 d:/csgcc/bin/../lib/gcc/mips-sde-elf/4.3.2/../../../../mips-sde-elf/lib/el/sof\libstdc++.a(class_type_info.o)
                0x00000000bd015a68                typeinfo name for __cxxabiv1::__class_type_info
 .rodata._ZTIN10__cxxabiv117__class_type_infoE
                0x00000000bd015a8c        0xc d:/csgcc/bin/../lib/gcc/mips-sde-elf/4.3.2/../../../../mips-sde-elf/lib/el/sof\libstdc++.a(class_type_info.o)
                0x00000000bd015a8c                typeinfo for __cxxabiv1::__class_type_info
 .rodata        0x00000000bd015a98      0x15c d:/csgcc/bin/../lib/gcc/mips-sde-elf/4.3.2/el/sof\libgcc.a(unwind-dw2.o)
 .rodata        0x00000000bd015bf4       0x34 d:/csgcc/bin/../lib/gcc/mips-sde-elf/4.3.2/el/sof\libgcc.a(unwind-dw2-fde.o)
 .rodata.str1.4
                0x00000000bd015c28        0x2 d:/csgcc/bin/../lib/gcc/mips-sde-elf/4.3.2/../../../../mips-sde-elf/lib/el/sof\libc.a(lib_a-impure.o)
                                          0x4 (size before relaxing)
 *fill*         0x00000000bd015c2a        0x2 00
 .rodata        0x00000000bd015c2c       0x68 d:/csgcc/bin/../lib/gcc/mips-sde-elf/4.3.2/../../../../mips-sde-elf/lib/el/sof\libc.a(lib_a-mktm_r.o)
 .rodata.str1.4
                0x00000000bd015c94        0x4 d:/csgcc/bin/../lib/gcc/mips-sde-elf/4.3.2/../../../../mips-sde-elf/lib/el/sof\libc.a(lib_a-tzvars.o)
 .rodata.str1.4
                0x00000000bd015c98       0x56 d:/csgcc/bin/../lib/gcc/mips-sde-elf/4.3.2/../../../../mips-sde-elf/lib/el/sof\libc.a(lib_a-vfprintf.o)
                                         0x58 (size before relaxing)
 *fill*         0x00000000bd015cee        0x2 00
 .rodata        0x00000000bd015cf0      0x184 d:/csgcc/bin/../lib/gcc/mips-sde-elf/4.3.2/../../../../mips-sde-elf/lib/el/sof\libc.a(lib_a-vfprintf.o)
 .rodata.str1.4
                0x00000000bd015e74       0x20 d:/csgcc/bin/../lib/gcc/mips-sde-elf/4.3.2/../../../../mips-sde-elf/lib/el/sof\libc.a(lib_a-asctime_r.o)
 .rodata        0x00000000bd015e94       0x3c d:/csgcc/bin/../lib/gcc/mips-sde-elf/4.3.2/../../../../mips-sde-elf/lib/el/sof\libc.a(lib_a-asctime_r.o)
 .rodata.str1.4
                0x00000000bd015ed0       0x10 d:/csgcc/bin/../lib/gcc/mips-sde-elf/4.3.2/../../../../mips-sde-elf/lib/el/sof\libc.a(lib_a-dtoa.o)
                                         0x14 (size before relaxing)
 .rodata        0x00000000bd015ee0       0x18 d:/csgcc/bin/../lib/gcc/mips-sde-elf/4.3.2/../../../../mips-sde-elf/lib/el/sof\libc.a(lib_a-dtoa.o)
 .rodata.cst8   0x00000000bd015ef8       0x48 d:/csgcc/bin/../lib/gcc/mips-sde-elf/4.3.2/../../../../mips-sde-elf/lib/el/sof\libc.a(lib_a-dtoa.o)
 .rodata.str1.4
                0x00000000bd015f40       0x10 d:/csgcc/bin/../lib/gcc/mips-sde-elf/4.3.2/../../../../mips-sde-elf/lib/el/sof\libc.a(lib_a-locale.o)
                                         0x18 (size before relaxing)
 .rodata        0x00000000bd015f50       0x34 d:/csgcc/bin/../lib/gcc/mips-sde-elf/4.3.2/../../../../mips-sde-elf/lib/el/sof\libc.a(lib_a-locale.o)
 *fill*         0x00000000bd015f84        0x4 00
 .rodata        0x00000000bd015f88      0x128 d:/csgcc/bin/../lib/gcc/mips-sde-elf/4.3.2/../../../../mips-sde-elf/lib/el/sof\libc.a(lib_a-mprec.o)
                0x00000000bd016078                __mprec_tinytens
                0x00000000bd015f88                __mprec_tens
                0x00000000bd016050                __mprec_bigtens
 .rodata.cst8   0x0000000000000000       0x10 d:/csgcc/bin/../lib/gcc/mips-sde-elf/4.3.2/../../../../mips-sde-elf/lib/el/sof\libc.a(lib_a-mprec.o)
 .rodata.cst8   0x00000000bd0160b0        0x8 d:/csgcc/bin/../lib/gcc/mips-sde-elf/4.3.2/el/sof\libgcc.a(_si_to_df.o)
 .rodata        0x00000000bd0160b8       0x18 d:/csgcc/bin/../lib/gcc/mips-sde-elf/4.3.2/el/sof\libgcc.a(_thenan_df.o)
                0x00000000bd0160b8                __thenan_df
                0x00000000bd0160d0                . = ALIGN (0x4)
 *(.init)
 .init          0x00000000bd0160d0        0x8 d:/csgcc/bin/../lib/gcc/mips-sde-elf/4.3.2/el/sof/crti.o
                0x00000000bd0160d0                _init
 .init          0x00000000bd0160d8        0x8 d:/csgcc/bin/../lib/gcc/mips-sde-elf/4.3.2/el/sof/crtbegin.o
 .init          0x00000000bd0160e0        0x8 d:/csgcc/bin/../lib/gcc/mips-sde-elf/4.3.2/el/sof/crtend.o
 .init          0x00000000bd0160e8        0xc d:/csgcc/bin/../lib/gcc/mips-sde-elf/4.3.2/el/sof/crtn.o
                0x00000000bd0160f4                . = ALIGN (0x4)
                0x00000000bd0160f4                __preinit_array_start = .
 *(.preinit_array)
                0x00000000bd0160f4                __preinit_array_end = .
                0x00000000bd0160f4                . = ALIGN (0x4)
                0x00000000bd0160f4                __init_array_start = .
 *(SORT(.init_array.*))
 *(.init_array)
                0x00000000bd0160f4                __init_array_end = .
                0x00000000bd0160f4                . = ALIGN (0x4)
 *(.fini)
 .fini          0x00000000bd0160f4        0x8 d:/csgcc/bin/../lib/gcc/mips-sde-elf/4.3.2/el/sof/crti.o
                0x00000000bd0160f4                _fini
 .fini          0x00000000bd0160fc        0x8 d:/csgcc/bin/../lib/gcc/mips-sde-elf/4.3.2/el/sof/crtbegin.o
 .fini          0x00000000bd016104        0xc d:/csgcc/bin/../lib/gcc/mips-sde-elf/4.3.2/el/sof/crtn.o
                0x00000000bd016110                . = ALIGN (0x4)
                0x00000000bd016110                __fini_array_start = .
 *(.fini_array)
 *(SORT(.fini_array.*))
                0x00000000bd016110                __fini_array_end = .
                0x00000000bd016110                . = ALIGN (0x4)
 *crtbegin.o(.ctors)
 .ctors         0x00000000bd016110        0x4 d:/csgcc/bin/../lib/gcc/mips-sde-elf/4.3.2/el/sof/crtbegin.o
 *(EXCLUDE_FILE(*crtend.o) .ctors)
 .ctors         0x00000000bd016114        0x4 d:/csgcc/bin/../lib/gcc/mips-sde-elf/4.3.2/../../../../mips-sde-elf/lib/el/sof\libstdc++.a(eh_alloc.o)
 *(SORT(.ctors.*))
 *crtend.o(.ctors)
 .ctors         0x00000000bd016118        0x4 d:/csgcc/bin/../lib/gcc/mips-sde-elf/4.3.2/el/sof/crtend.o
                0x00000000bd01611c                . = ALIGN (0x4)
 *crtbegin.o(.dtors)
 .dtors         0x00000000bd01611c        0x4 d:/csgcc/bin/../lib/gcc/mips-sde-elf/4.3.2/el/sof/crtbegin.o
 *(EXCLUDE_FILE(*crtend.o) .dtors)
 *(SORT(.dtors.*))
 *crtend.o(.dtors)
 .dtors         0x00000000bd016120        0x4 d:/csgcc/bin/../lib/gcc/mips-sde-elf/4.3.2/el/sof/crtend.o
                0x00000000bd016120                __DTOR_END__
 *(.lit)
                0x00000000bd016124                . = ALIGN (0x4)
                0x00000000bd016124                __cs3_regions = .
                0x00000000bd016124        0x4 LONG 0x0
                0x00000000bd016128        0x4 LONG 0xbd016138 __cs3_region_init_ram
                0x00000000bd01612c        0x4 LONG 0xa0000010 __cs3_region_start_ram
                0x00000000bd016130        0x4 LONG 0x8b8 __cs3_region_init_size_ram
                0x00000000bd016134        0x4 LONG 0xaf8 __cs3_region_zero_size_ram
                0x00000000bd016138                __cs3_regions_end = .
                0x00000000bd016138                . = ALIGN (0x8)
                0x00000000bd016138                _etext = .
                0x0000000000020000                __cs3_region_size_rom = 0x20000

.gnu.warning    0x00000000bd016138        0x0
 .gnu.warning   0x0000000000000000        0x0 d:/csgcc/bin/../lib/gcc/mips-sde-elf/4.3.2/../../../../mips-sde-elf/lib/el/sof\libcs3unhosted.a(unhosted-close.o)
 .gnu.warning   0x0000000000000000        0x0 d:/csgcc/bin/../lib/gcc/mips-sde-elf/4.3.2/../../../../mips-sde-elf/lib/el/sof\libcs3unhosted.a(unhosted-fstat.o)
 .gnu.warning   0x0000000000000000        0x0 d:/csgcc/bin/../lib/gcc/mips-sde-elf/4.3.2/../../../../mips-sde-elf/lib/el/sof\libcs3unhosted.a(unhosted-isatty.o)
 .gnu.warning   0x0000000000000000        0x0 d:/csgcc/bin/../lib/gcc/mips-sde-elf/4.3.2/../../../../mips-sde-elf/lib/el/sof\libcs3unhosted.a(unhosted-lseek.o)
 .gnu.warning   0x0000000000000000        0x0 d:/csgcc/bin/../lib/gcc/mips-sde-elf/4.3.2/../../../../mips-sde-elf/lib/el/sof\libcs3unhosted.a(unhosted-open.o)

.data           0x00000000a0000010      0x8b8 load address 0x00000000bd016138
                0x00000000a0000010                __cs3_region_start_ram = .
 *(.got.plt)
 *(.got)
 *(.shdata)
 *(.data .data.* .gnu.linkonce.d.*)
 .data          0x00000000a0000010        0x0 d:/csgcc/bin/../lib/gcc/mips-sde-elf/4.3.2/el/sof/crti.o
 .data          0x00000000a0000010        0x0 d:/csgcc/bin/../lib/gcc/mips-sde-elf/4.3.2/el/sof/crtbegin.o
 .data          0x00000000a0000010        0x0 obj/pic32mx_cfg_init.o
 .data          0x00000000a0000010        0x0 obj/PIC32MX-reset.o
 .data          0x00000000a0000010        0x0 obj/ISRwrapper.o
 .data          0x00000000a0000010        0x0 obj/CPP_Demo.o
 .data          0x00000000a0000010        0x0 obj/DRN_PIC32MX_UART1.o
 .data          0x00000000a0000010        0x0 obj/DRN_PIC32MX_CS_glue.o
 .data          0x00000000a0000010        0x0 obj/PIC32MX_time.o
 .data          0x00000000a0000010        0x0 obj/int_enable_interrupts_lib.o
 .data          0x00000000a0000010        0x0 obj/int_disable_interrupts_lib.o
 .data          0x00000000a0000010        0x0 obj/int_restore_interrupts_lib.o
 .data          0x00000000a0000010        0x0 obj/p32mx440f256h.o
 .data          0x00000000a0000010        0x0 obj/pcache.o
 .data          0x00000000a0000010        0x0 d:/csgcc/bin/../lib/gcc/mips-sde-elf/4.3.2/../../../../mips-sde-elf/lib/el/sof\libstdc++.a(eh_personality.o)
 .data          0x00000000a0000010        0x0 d:/csgcc/bin/../lib/gcc/mips-sde-elf/4.3.2/../../../../mips-sde-elf/lib/el/sof\libstdc++.a(eh_terminate.o)
 .data          0x00000000a0000010        0x0 d:/csgcc/bin/../lib/gcc/mips-sde-elf/4.3.2/../../../../mips-sde-elf/lib/el/sof\libstdc++.a(eh_throw.o)
 .data          0x00000000a0000010        0x0 d:/csgcc/bin/../lib/gcc/mips-sde-elf/4.3.2/../../../../mips-sde-elf/lib/el/sof\libstdc++.a(eh_unex_handler.o)
 .data          0x00000000a0000010        0x0 d:/csgcc/bin/../lib/gcc/mips-sde-elf/4.3.2/../../../../mips-sde-elf/lib/el/sof\libstdc++.a(eh_alloc.o)
 .data          0x00000000a0000010        0x0 d:/csgcc/bin/../lib/gcc/mips-sde-elf/4.3.2/../../../../mips-sde-elf/lib/el/sof\libstdc++.a(eh_call.o)
 .data          0x00000000a0000010        0x0 d:/csgcc/bin/../lib/gcc/mips-sde-elf/4.3.2/../../../../mips-sde-elf/lib/el/sof\libstdc++.a(eh_catch.o)
 .data          0x00000000a0000010        0x0 d:/csgcc/bin/../lib/gcc/mips-sde-elf/4.3.2/../../../../mips-sde-elf/lib/el/sof\libstdc++.a(eh_exception.o)
 .data          0x00000000a0000010        0x0 d:/csgcc/bin/../lib/gcc/mips-sde-elf/4.3.2/../../../../mips-sde-elf/lib/el/sof\libstdc++.a(eh_globals.o)
 .data          0x00000000a0000010        0x0 d:/csgcc/bin/../lib/gcc/mips-sde-elf/4.3.2/../../../../mips-sde-elf/lib/el/sof\libstdc++.a(eh_term_handler.o)
 .data          0x00000000a0000010        0x0 d:/csgcc/bin/../lib/gcc/mips-sde-elf/4.3.2/../../../../mips-sde-elf/lib/el/sof\libstdc++.a(pure.o)
 .data          0x00000000a0000010        0x0 d:/csgcc/bin/../lib/gcc/mips-sde-elf/4.3.2/../../../../mips-sde-elf/lib/el/sof\libstdc++.a(si_class_type_info.o)
 .data          0x00000000a0000010        0x0 d:/csgcc/bin/../lib/gcc/mips-sde-elf/4.3.2/../../../../mips-sde-elf/lib/el/sof\libstdc++.a(tinfo.o)
 .data          0x00000000a0000010        0x0 d:/csgcc/bin/../lib/gcc/mips-sde-elf/4.3.2/../../../../mips-sde-elf/lib/el/sof\libstdc++.a(vterminate.o)
 .data          0x00000000a0000010        0x0 d:/csgcc/bin/../lib/gcc/mips-sde-elf/4.3.2/../../../../mips-sde-elf/lib/el/sof\libstdc++.a(cp-demangle.o)
 .data          0x00000000a0000010        0x0 d:/csgcc/bin/../lib/gcc/mips-sde-elf/4.3.2/../../../../mips-sde-elf/lib/el/sof\libstdc++.a(class_type_info.o)
 .data          0x00000000a0000010        0x0 d:/csgcc/bin/../lib/gcc/mips-sde-elf/4.3.2/../../../../mips-sde-elf/lib/el/sof\libstdc++.a(del_op.o)
 .data          0x00000000a0000010        0x0 d:/csgcc/bin/../lib/gcc/mips-sde-elf/4.3.2/../../../../mips-sde-elf/lib/el/sof\libstdc++.a(eh_type.o)
 .data          0x00000000a0000010        0x0 d:/csgcc/bin/../lib/gcc/mips-sde-elf/4.3.2/el/sof\libgcc.a(unwind-dw2.o)
 .data          0x00000000a0000010        0x0 d:/csgcc/bin/../lib/gcc/mips-sde-elf/4.3.2/el/sof\libgcc.a(unwind-dw2-fde.o)
 .data          0x00000000a0000010        0x0 d:/csgcc/bin/../lib/gcc/mips-sde-elf/4.3.2/el/sof/crtend.o
 .data          0x00000000a0000010        0x0 d:/csgcc/bin/../lib/gcc/mips-sde-elf/4.3.2/el/sof/crtn.o
 .data          0x00000000a0000010        0x0 d:/csgcc/bin/../lib/gcc/mips-sde-elf/4.3.2/../../../../mips-sde-elf/lib/el/sof\libc.a(lib_a-abort.o)
 .data          0x00000000a0000010        0x0 d:/csgcc/bin/../lib/gcc/mips-sde-elf/4.3.2/../../../../mips-sde-elf/lib/el/sof\libc.a(lib_a-ctime.o)
 .data          0x00000000a0000010        0x0 d:/csgcc/bin/../lib/gcc/mips-sde-elf/4.3.2/../../../../mips-sde-elf/lib/el/sof\libc.a(lib_a-fputc.o)
 .data          0x00000000a0000010        0x0 d:/csgcc/bin/../lib/gcc/mips-sde-elf/4.3.2/../../../../mips-sde-elf/lib/el/sof\libc.a(lib_a-fputs.o)
 .data          0x00000000a0000010        0x0 d:/csgcc/bin/../lib/gcc/mips-sde-elf/4.3.2/../../../../mips-sde-elf/lib/el/sof\libc.a(lib_a-fvwrite.o)
 .data          0x00000000a0000010      0x3f8 d:/csgcc/bin/../lib/gcc/mips-sde-elf/4.3.2/../../../../mips-sde-elf/lib/el/sof\libc.a(lib_a-impure.o)
 .data          0x00000000a0000408        0x0 d:/csgcc/bin/../lib/gcc/mips-sde-elf/4.3.2/../../../../mips-sde-elf/lib/el/sof\libc.a(lib_a-lcltime.o)
 .data          0x00000000a0000408        0x0 d:/csgcc/bin/../lib/gcc/mips-sde-elf/4.3.2/../../../../mips-sde-elf/lib/el/sof\libc.a(lib_a-lcltime_r.o)
 .data          0x00000000a0000408        0x0 d:/csgcc/bin/../lib/gcc/mips-sde-elf/4.3.2/../../../../mips-sde-elf/lib/el/sof\libc.a(lib_a-malloc.o)
 .data          0x00000000a0000408      0x408 d:/csgcc/bin/../lib/gcc/mips-sde-elf/4.3.2/../../../../mips-sde-elf/lib/el/sof\libc.a(lib_a-mallocr.o)
                0x00000000a0000408                __malloc_av_
 .data          0x00000000a0000810        0x0 d:/csgcc/bin/../lib/gcc/mips-sde-elf/4.3.2/../../../../mips-sde-elf/lib/el/sof\libc.a(lib_a-memchr.o)
 .data          0x00000000a0000810        0x0 d:/csgcc/bin/../lib/gcc/mips-sde-elf/4.3.2/../../../../mips-sde-elf/lib/el/sof\libc.a(lib_a-memcmp.o)
 .data          0x00000000a0000810        0x0 d:/csgcc/bin/../lib/gcc/mips-sde-elf/4.3.2/../../../../mips-sde-elf/lib/el/sof\libc.a(lib_a-memcpy.o)
 .data          0x00000000a0000810        0x0 d:/csgcc/bin/../lib/gcc/mips-sde-elf/4.3.2/../../../../mips-sde-elf/lib/el/sof\libc.a(lib_a-memmove.o)
 .data          0x00000000a0000810        0x0 d:/csgcc/bin/../lib/gcc/mips-sde-elf/4.3.2/../../../../mips-sde-elf/lib/el/sof\libc.a(lib_a-memset.o)
 .data          0x00000000a0000810        0x0 d:/csgcc/bin/../lib/gcc/mips-sde-elf/4.3.2/../../../../mips-sde-elf/lib/el/sof\libc.a(lib_a-mktm_r.o)
 .data          0x00000000a0000810        0x0 d:/csgcc/bin/../lib/gcc/mips-sde-elf/4.3.2/../../../../mips-sde-elf/lib/el/sof\libc.a(lib_a-mlock.o)
 .data          0x00000000a0000810        0x0 d:/csgcc/bin/../lib/gcc/mips-sde-elf/4.3.2/../../../../mips-sde-elf/lib/el/sof\libc.a(lib_a-printf.o)
 .data          0x00000000a0000810        0x0 d:/csgcc/bin/../lib/gcc/mips-sde-elf/4.3.2/../../../../mips-sde-elf/lib/el/sof\libc.a(lib_a-putc.o)
 .data          0x00000000a0000810        0x0 d:/csgcc/bin/../lib/gcc/mips-sde-elf/4.3.2/../../../../mips-sde-elf/lib/el/sof\libc.a(lib_a-realloc.o)
 .data          0x00000000a0000810        0x0 d:/csgcc/bin/../lib/gcc/mips-sde-elf/4.3.2/../../../../mips-sde-elf/lib/el/sof\libc.a(lib_a-reallocr.o)
 .data          0x00000000a0000810        0x0 d:/csgcc/bin/../lib/gcc/mips-sde-elf/4.3.2/../../../../mips-sde-elf/lib/el/sof\libc.a(lib_a-sbrkr.o)
 .data          0x00000000a0000810        0x0 d:/csgcc/bin/../lib/gcc/mips-sde-elf/4.3.2/../../../../mips-sde-elf/lib/el/sof\libc.a(lib_a-signal.o)
 .data          0x00000000a0000810        0x0 d:/csgcc/bin/../lib/gcc/mips-sde-elf/4.3.2/../../../../mips-sde-elf/lib/el/sof\libc.a(lib_a-signalr.o)
 .data          0x00000000a0000810        0x0 d:/csgcc/bin/../lib/gcc/mips-sde-elf/4.3.2/../../../../mips-sde-elf/lib/el/sof\libc.a(lib_a-strcmp.o)
 .data          0x00000000a0000810        0x0 d:/csgcc/bin/../lib/gcc/mips-sde-elf/4.3.2/../../../../mips-sde-elf/lib/el/sof\libc.a(lib_a-strcpy.o)
 .data          0x00000000a0000810        0x0 d:/csgcc/bin/../lib/gcc/mips-sde-elf/4.3.2/../../../../mips-sde-elf/lib/el/sof\libc.a(lib_a-strlen.o)
 .data          0x00000000a0000810        0x0 d:/csgcc/bin/../lib/gcc/mips-sde-elf/4.3.2/../../../../mips-sde-elf/lib/el/sof\libc.a(lib_a-strncmp.o)
 .data          0x00000000a0000810        0x0 d:/csgcc/bin/../lib/gcc/mips-sde-elf/4.3.2/../../../../mips-sde-elf/lib/el/sof\libc.a(lib_a-tzvars.o)
 .data          0x00000000a0000810        0x0 d:/csgcc/bin/../lib/gcc/mips-sde-elf/4.3.2/../../../../mips-sde-elf/lib/el/sof\libc.a(lib_a-vfprintf.o)
 .data          0x00000000a0000810        0x0 d:/csgcc/bin/../lib/gcc/mips-sde-elf/4.3.2/../../../../mips-sde-elf/lib/el/sof\libc.a(lib_a-wbuf.o)
 .data          0x00000000a0000810        0x0 d:/csgcc/bin/../lib/gcc/mips-sde-elf/4.3.2/../../../../mips-sde-elf/lib/el/sof\libc.a(lib_a-wsetup.o)
 .data          0x00000000a0000810        0x0 d:/csgcc/bin/../lib/gcc/mips-sde-elf/4.3.2/../../../../mips-sde-elf/lib/el/sof\libc.a(lib_a-asctime.o)
 .data          0x00000000a0000810        0x0 d:/csgcc/bin/../lib/gcc/mips-sde-elf/4.3.2/../../../../mips-sde-elf/lib/el/sof\libc.a(lib_a-asctime_r.o)
 .data          0x00000000a0000810        0x0 d:/csgcc/bin/../lib/gcc/mips-sde-elf/4.3.2/../../../../mips-sde-elf/lib/el/sof\libc.a(lib_a-dtoa.o)
 .data          0x00000000a0000810        0x0 d:/csgcc/bin/../lib/gcc/mips-sde-elf/4.3.2/../../../../mips-sde-elf/lib/el/sof\libc.a(lib_a-fflush.o)
 .data          0x00000000a0000810        0x0 d:/csgcc/bin/../lib/gcc/mips-sde-elf/4.3.2/../../../../mips-sde-elf/lib/el/sof\libc.a(lib_a-findfp.o)
 .data          0x00000000a0000810        0x0 d:/csgcc/bin/../lib/gcc/mips-sde-elf/4.3.2/../../../../mips-sde-elf/lib/el/sof\libc.a(lib_a-freer.o)
 .data          0x00000000a0000810        0x0 d:/csgcc/bin/../lib/gcc/mips-sde-elf/4.3.2/../../../../mips-sde-elf/lib/el/sof\libc.a(lib_a-fwalk.o)
 .data          0x00000000a0000810       0x40 d:/csgcc/bin/../lib/gcc/mips-sde-elf/4.3.2/../../../../mips-sde-elf/lib/el/sof\libc.a(lib_a-gettzinfo.o)
 .data          0x00000000a0000850        0xc d:/csgcc/bin/../lib/gcc/mips-sde-elf/4.3.2/../../../../mips-sde-elf/lib/el/sof\libc.a(lib_a-locale.o)
                0x00000000a0000850                __lc_ctype
 .data          0x00000000a000085c        0x0 d:/csgcc/bin/../lib/gcc/mips-sde-elf/4.3.2/../../../../mips-sde-elf/lib/el/sof\libc.a(lib_a-makebuf.o)
 .data          0x00000000a000085c        0x0 d:/csgcc/bin/../lib/gcc/mips-sde-elf/4.3.2/../../../../mips-sde-elf/lib/el/sof\libc.a(lib_a-mprec.o)
 .data          0x00000000a000085c        0x0 d:/csgcc/bin/../lib/gcc/mips-sde-elf/4.3.2/../../../../mips-sde-elf/lib/el/sof\libc.a(lib_a-reent.o)
 .data          0x00000000a000085c        0x0 d:/csgcc/bin/../lib/gcc/mips-sde-elf/4.3.2/../../../../mips-sde-elf/lib/el/sof\libc.a(lib_a-s_isinfd.o)
 .data          0x00000000a000085c        0x0 d:/csgcc/bin/../lib/gcc/mips-sde-elf/4.3.2/../../../../mips-sde-elf/lib/el/sof\libc.a(lib_a-s_isnand.o)
 .data          0x00000000a000085c        0x0 d:/csgcc/bin/../lib/gcc/mips-sde-elf/4.3.2/../../../../mips-sde-elf/lib/el/sof\libc.a(lib_a-sprintf.o)
 .data          0x00000000a000085c        0x0 d:/csgcc/bin/../lib/gcc/mips-sde-elf/4.3.2/../../../../mips-sde-elf/lib/el/sof\libc.a(lib_a-stdio.o)
 .data          0x00000000a000085c        0x0 d:/csgcc/bin/../lib/gcc/mips-sde-elf/4.3.2/../../../../mips-sde-elf/lib/el/sof\libc.a(lib_a-writer.o)
 .data          0x00000000a000085c        0x0 d:/csgcc/bin/../lib/gcc/mips-sde-elf/4.3.2/../../../../mips-sde-elf/lib/el/sof\libc.a(lib_a-callocr.o)
 .data          0x00000000a000085c        0x0 d:/csgcc/bin/../lib/gcc/mips-sde-elf/4.3.2/../../../../mips-sde-elf/lib/el/sof\libc.a(lib_a-closer.o)
 .data          0x00000000a000085c        0x0 d:/csgcc/bin/../lib/gcc/mips-sde-elf/4.3.2/../../../../mips-sde-elf/lib/el/sof\libc.a(lib_a-fclose.o)
 .data          0x00000000a000085c        0x0 d:/csgcc/bin/../lib/gcc/mips-sde-elf/4.3.2/../../../../mips-sde-elf/lib/el/sof\libc.a(lib_a-fstatr.o)
 .data          0x00000000a000085c        0x0 d:/csgcc/bin/../lib/gcc/mips-sde-elf/4.3.2/../../../../mips-sde-elf/lib/el/sof\libc.a(lib_a-isattyr.o)
 .data          0x00000000a000085c        0x0 d:/csgcc/bin/../lib/gcc/mips-sde-elf/4.3.2/../../../../mips-sde-elf/lib/el/sof\libc.a(lib_a-lseekr.o)
 .data          0x00000000a000085c        0x0 d:/csgcc/bin/../lib/gcc/mips-sde-elf/4.3.2/../../../../mips-sde-elf/lib/el/sof\libc.a(lib_a-readr.o)
 .data          0x00000000a000085c        0x0 d:/csgcc/bin/../lib/gcc/mips-sde-elf/4.3.2/../../../../mips-sde-elf/lib/el/sof\libcs3.a(start_c.o)
 .data          0x00000000a000085c        0x0 d:/csgcc/bin/../lib/gcc/mips-sde-elf/4.3.2/../../../../mips-sde-elf/lib/el/sof\libcs3unhosted.a(unhosted-_exit.o)
 .data          0x00000000a000085c        0x0 d:/csgcc/bin/../lib/gcc/mips-sde-elf/4.3.2/../../../../mips-sde-elf/lib/el/sof\libcs3unhosted.a(unhosted-close.o)
 .data          0x00000000a000085c        0x0 d:/csgcc/bin/../lib/gcc/mips-sde-elf/4.3.2/../../../../mips-sde-elf/lib/el/sof\libcs3unhosted.a(unhosted-fstat.o)
 .data          0x00000000a000085c        0x0 d:/csgcc/bin/../lib/gcc/mips-sde-elf/4.3.2/../../../../mips-sde-elf/lib/el/sof\libcs3unhosted.a(unhosted-isatty.o)
 .data          0x00000000a000085c        0x0 d:/csgcc/bin/../lib/gcc/mips-sde-elf/4.3.2/../../../../mips-sde-elf/lib/el/sof\libcs3unhosted.a(unhosted-lseek.o)
 .data          0x00000000a000085c        0x0 d:/csgcc/bin/../lib/gcc/mips-sde-elf/4.3.2/../../../../mips-sde-elf/lib/el/sof\libcs3unhosted.a(unhosted-open.o)
 .data          0x00000000a000085c        0x0 d:/csgcc/bin/../lib/gcc/mips-sde-elf/4.3.2/../../../../mips-sde-elf/lib/el/sof\libcs3unhosted.a(unhosted-sbrk.o)
 .data          0x00000000a000085c        0x0 d:/csgcc/bin/../lib/gcc/mips-sde-elf/4.3.2/../../../../mips-sde-elf/lib/el/sof\libcs3unhosted.a(unhosted-getpid.o)
 .data          0x00000000a000085c        0x0 d:/csgcc/bin/../lib/gcc/mips-sde-elf/4.3.2/../../../../mips-sde-elf/lib/el/sof\libcs3unhosted.a(unhosted-kill.o)
 .data          0x00000000a000085c        0x0 d:/csgcc/bin/../lib/gcc/mips-sde-elf/4.3.2/../../../../mips-sde-elf/lib/el/sof\libcs3unhosted.a(start.o)
 .data          0x00000000a000085c        0x0 d:/csgcc/bin/../lib/gcc/mips-sde-elf/4.3.2/el/sof\libgcc.a(_udivdi3.o)
 .data          0x00000000a000085c        0x0 d:/csgcc/bin/../lib/gcc/mips-sde-elf/4.3.2/el/sof\libgcc.a(_umoddi3.o)
 .data          0x00000000a000085c        0x0 d:/csgcc/bin/../lib/gcc/mips-sde-elf/4.3.2/el/sof\libgcc.a(_addsub_df.o)
 .data          0x00000000a000085c        0x0 d:/csgcc/bin/../lib/gcc/mips-sde-elf/4.3.2/el/sof\libgcc.a(_mul_df.o)
 .data          0x00000000a000085c        0x0 d:/csgcc/bin/../lib/gcc/mips-sde-elf/4.3.2/el/sof\libgcc.a(_div_df.o)
 .data          0x00000000a000085c        0x0 d:/csgcc/bin/../lib/gcc/mips-sde-elf/4.3.2/el/sof\libgcc.a(_eq_df.o)
 .data          0x00000000a000085c        0x0 d:/csgcc/bin/../lib/gcc/mips-sde-elf/4.3.2/el/sof\libgcc.a(_ne_df.o)
 .data          0x00000000a000085c        0x0 d:/csgcc/bin/../lib/gcc/mips-sde-elf/4.3.2/el/sof\libgcc.a(_gt_df.o)
 .data          0x00000000a000085c        0x0 d:/csgcc/bin/../lib/gcc/mips-sde-elf/4.3.2/el/sof\libgcc.a(_ge_df.o)
 .data          0x00000000a000085c        0x0 d:/csgcc/bin/../lib/gcc/mips-sde-elf/4.3.2/el/sof\libgcc.a(_lt_df.o)
 .data          0x00000000a000085c        0x0 d:/csgcc/bin/../lib/gcc/mips-sde-elf/4.3.2/el/sof\libgcc.a(_si_to_df.o)
 .data          0x00000000a000085c        0x0 d:/csgcc/bin/../lib/gcc/mips-sde-elf/4.3.2/el/sof\libgcc.a(_df_to_si.o)
 .data          0x00000000a000085c        0x0 d:/csgcc/bin/../lib/gcc/mips-sde-elf/4.3.2/el/sof\libgcc.a(_thenan_df.o)
 .data          0x00000000a000085c        0x0 d:/csgcc/bin/../lib/gcc/mips-sde-elf/4.3.2/el/sof\libgcc.a(_usi_to_df.o)
 .data          0x00000000a000085c        0x0 d:/csgcc/bin/../lib/gcc/mips-sde-elf/4.3.2/el/sof\libgcc.a(_lshrdi3.o)
 .data          0x00000000a000085c        0x0 d:/csgcc/bin/../lib/gcc/mips-sde-elf/4.3.2/el/sof\libgcc.a(_ashldi3.o)
 .data          0x00000000a000085c        0x0 d:/csgcc/bin/../lib/gcc/mips-sde-elf/4.3.2/el/sof\libgcc.a(_ucmpdi2.o)
 .data          0x00000000a000085c        0x0 d:/csgcc/bin/../lib/gcc/mips-sde-elf/4.3.2/el/sof\libgcc.a(_pack_df.o)
 .data          0x00000000a000085c        0x0 d:/csgcc/bin/../lib/gcc/mips-sde-elf/4.3.2/el/sof\libgcc.a(_unpack_df.o)
 .data          0x00000000a000085c        0x0 d:/csgcc/bin/../lib/gcc/mips-sde-elf/4.3.2/el/sof\libgcc.a(_fpcmp_parts_df.o)
 .data          0x00000000a000085c        0x0 d:/csgcc/bin/../lib/gcc/mips-sde-elf/4.3.2/../../../../mips-sde-elf/lib/el/sof\libc.a(lib_a-errno.o)
 .data          0x00000000a000085c        0x0 d:/csgcc/bin/../lib/gcc/mips-sde-elf/4.3.2/../../../../mips-sde-elf/lib/el/sof\libc.a(lib_a-init.o)
 .data          0x00000000a000085c        0x0 d:/csgcc/bin/../lib/gcc/mips-sde-elf/4.3.2/../../../../mips-sde-elf/lib/el/sof\libcs3.a(heap.o)
                0x00000000a0000860                . = ALIGN (0x8)
 *fill*         0x00000000a000085c        0x4 00
                0x00000000a0008860                _gp = (. + 0x8000)
 *(.lit8)
 *(.lit4)
 *(.sdata .sdata.* .gnu.linkonce.s.*)
 .sdata         0x00000000a0000860        0x4 d:/csgcc/bin/../lib/gcc/mips-sde-elf/4.3.2/el/sof/crtbegin.o
                0x00000000a0000860                __dso_handle
 .sdata         0x00000000a0000864        0x4 obj/CPP_Demo.o
                0x00000000a0000864                hello
 .sdata         0x00000000a0000868       0x10 obj/DRN_PIC32MX_UART1.o
 .sdata         0x00000000a0000878        0x4 obj/PIC32MX_time.o
 .sdata._ZN10__cxxabiv120__unexpected_handlerE
                0x00000000a000087c        0x4 d:/csgcc/bin/../lib/gcc/mips-sde-elf/4.3.2/../../../../mips-sde-elf/lib/el/sof\libstdc++.a(eh_unex_handler.o)
                0x00000000a000087c                __cxxabiv1::__unexpected_handler
 .sdata._ZTIN10__cxxabiv119__foreign_exceptionE
                0x00000000a0000880        0x8 d:/csgcc/bin/../lib/gcc/mips-sde-elf/4.3.2/../../../../mips-sde-elf/lib/el/sof\libstdc++.a(eh_exception.o)
                0x00000000a0000880                typeinfo for __cxxabiv1::__foreign_exception
 .sdata._ZTIN10__cxxabiv115__forced_unwindE
                0x00000000a0000888        0x8 d:/csgcc/bin/../lib/gcc/mips-sde-elf/4.3.2/../../../../mips-sde-elf/lib/el/sof\libstdc++.a(eh_exception.o)
                0x00000000a0000888                typeinfo for __cxxabiv1::__forced_unwind
 .sdata._ZTISt9exception
                0x00000000a0000890        0x8 d:/csgcc/bin/../lib/gcc/mips-sde-elf/4.3.2/../../../../mips-sde-elf/lib/el/sof\libstdc++.a(eh_exception.o)
                0x00000000a0000890                typeinfo for std::exception
 .sdata._ZN10__cxxabiv119__terminate_handlerE
                0x00000000a0000898        0x4 d:/csgcc/bin/../lib/gcc/mips-sde-elf/4.3.2/../../../../mips-sde-elf/lib/el/sof\libstdc++.a(eh_term_handler.o)
                0x00000000a0000898                __cxxabiv1::__terminate_handler
 .sdata._ZTISt9type_info
                0x00000000a000089c        0x8 d:/csgcc/bin/../lib/gcc/mips-sde-elf/4.3.2/../../../../mips-sde-elf/lib/el/sof\libstdc++.a(tinfo.o)
                0x00000000a000089c                typeinfo for std::type_info
 .sdata         0x00000000a00008a4        0x8 d:/csgcc/bin/../lib/gcc/mips-sde-elf/4.3.2/../../../../mips-sde-elf/lib/el/sof\libc.a(lib_a-impure.o)
                0x00000000a00008a8                _global_impure_ptr
                0x00000000a00008a4                _impure_ptr
 .sdata         0x00000000a00008ac        0x8 d:/csgcc/bin/../lib/gcc/mips-sde-elf/4.3.2/../../../../mips-sde-elf/lib/el/sof\libc.a(lib_a-mallocr.o)
                0x00000000a00008b0                __malloc_sbrk_base
                0x00000000a00008ac                __malloc_trim_threshold
 .sdata         0x00000000a00008b4        0x8 d:/csgcc/bin/../lib/gcc/mips-sde-elf/4.3.2/../../../../mips-sde-elf/lib/el/sof\libc.a(lib_a-tzvars.o)
                0x00000000a00008b4                _tzname
 .sdata         0x00000000a00008bc        0x4 d:/csgcc/bin/../lib/gcc/mips-sde-elf/4.3.2/../../../../mips-sde-elf/lib/el/sof\libc.a(lib_a-locale.o)
                0x00000000a00008bc                __mb_cur_max
 .sdata         0x00000000a00008c0        0x4 d:/csgcc/bin/../lib/gcc/mips-sde-elf/4.3.2/../../../../mips-sde-elf/lib/el/sof\libcs3unhosted.a(unhosted-sbrk.o)
 .sdata         0x00000000a00008c4        0x4 d:/csgcc/bin/../lib/gcc/mips-sde-elf/4.3.2/../../../../mips-sde-elf/lib/el/sof\libcs3.a(heap.o)
                0x00000000a00008c4                __cs3_heap_limit
                0x00000000a00008c8                . = ALIGN (0x8)
 *(.ram)
                0x00000000a00008c8                _edata = .

.startup_data   0x00000000a0000000        0x4
 *(.reset_data)
 .reset_data    0x00000000a0000000        0x4 obj/PIC32MX-reset.o
                0x00000000a0000000                _SAVED_RCON

.bss            0x00000000a00008c8      0xaf8
 *(.sbss .sbss.* .gnu.linkonce.sb.*)
 .sbss          0x00000000a00008c8        0x4 obj/CPP_Demo.o
                0x00000000a00008c8                i
 .sbss          0x00000000a00008cc        0x4 obj/DRN_PIC32MX_UART1.o
 .sbss          0x00000000a00008d0        0x8 obj/DRN_PIC32MX_CS_glue.o
 .sbss          0x00000000a00008d8        0xc obj/PIC32MX_time.o
 .sbss          0x00000000a00008e4        0xc d:/csgcc/bin/../lib/gcc/mips-sde-elf/4.3.2/../../../../mips-sde-elf/lib/el/sof\libc.a(lib_a-mallocr.o)
                0x00000000a00008e4                __malloc_top_pad
                0x00000000a00008e8                __malloc_max_sbrked_mem
                0x00000000a00008ec                __malloc_max_total_mem
 .sbss          0x00000000a00008f0        0x8 d:/csgcc/bin/../lib/gcc/mips-sde-elf/4.3.2/../../../../mips-sde-elf/lib/el/sof\libc.a(lib_a-tzvars.o)
                0x00000000a00008f0                _daylight
                0x00000000a00008f4                _timezone
 .sbss          0x00000000a00008f8        0xc d:/csgcc/bin/../lib/gcc/mips-sde-elf/4.3.2/../../../../mips-sde-elf/lib/el/sof\libc.a(lib_a-locale.o)
                0x00000000a00008f8                __nlocale_changed
                0x00000000a00008fc                __mlocale_changed
                0x00000000a0000900                _PathLocale
 *(.scommon)
 .scommon       0x00000000a0000904        0x4 d:/csgcc/bin/../lib/gcc/mips-sde-elf/4.3.2/../../../../mips-sde-elf/lib/el/sof\libc.a(lib_a-reent.o)
                0x00000000a0000904                errno
 *(.shbss)
 *(.bss .bss.* .gnu.linkonce.b.*)
 .bss           0x00000000a0000908        0x0 d:/csgcc/bin/../lib/gcc/mips-sde-elf/4.3.2/el/sof/crti.o
 .bss           0x00000000a0000908       0x20 d:/csgcc/bin/../lib/gcc/mips-sde-elf/4.3.2/el/sof/crtbegin.o
 .bss           0x00000000a0000928        0x0 obj/pic32mx_cfg_init.o
 .bss           0x00000000a0000928        0x0 obj/PIC32MX-reset.o
 .bss           0x00000000a0000928        0x0 obj/ISRwrapper.o
 .bss           0x00000000a0000928        0x0 obj/CPP_Demo.o
 .bss           0x00000000a0000928      0x190 obj/DRN_PIC32MX_UART1.o
 .bss           0x00000000a0000ab8        0x0 obj/DRN_PIC32MX_CS_glue.o
 .bss           0x00000000a0000ab8        0x0 obj/PIC32MX_time.o
 .bss           0x00000000a0000ab8        0x0 obj/int_enable_interrupts_lib.o
 .bss           0x00000000a0000ab8        0x0 obj/int_disable_interrupts_lib.o
 .bss           0x00000000a0000ab8        0x0 obj/int_restore_interrupts_lib.o
 .bss           0x00000000a0000ab8        0x0 obj/p32mx440f256h.o
 .bss           0x00000000a0000ab8        0x0 obj/pcache.o
 .bss           0x00000000a0000ab8        0x0 d:/csgcc/bin/../lib/gcc/mips-sde-elf/4.3.2/../../../../mips-sde-elf/lib/el/sof\libstdc++.a(eh_personality.o)
 .bss           0x00000000a0000ab8        0x0 d:/csgcc/bin/../lib/gcc/mips-sde-elf/4.3.2/../../../../mips-sde-elf/lib/el/sof\libstdc++.a(eh_terminate.o)
 .bss           0x00000000a0000ab8        0x0 d:/csgcc/bin/../lib/gcc/mips-sde-elf/4.3.2/../../../../mips-sde-elf/lib/el/sof\libstdc++.a(eh_throw.o)
 .bss           0x00000000a0000ab8        0x0 d:/csgcc/bin/../lib/gcc/mips-sde-elf/4.3.2/../../../../mips-sde-elf/lib/el/sof\libstdc++.a(eh_unex_handler.o)
 .bss           0x00000000a0000ab8        0x0 d:/csgcc/bin/../lib/gcc/mips-sde-elf/4.3.2/../../../../mips-sde-elf/lib/el/sof\libstdc++.a(eh_alloc.o)
 .bss._ZL16emergency_buffer
                0x00000000a0000ab8      0x800 d:/csgcc/bin/../lib/gcc/mips-sde-elf/4.3.2/../../../../mips-sde-elf/lib/el/sof\libstdc++.a(eh_alloc.o)
 .bss._ZL14emergency_used
                0x00000000a00012b8        0x4 d:/csgcc/bin/../lib/gcc/mips-sde-elf/4.3.2/../../../../mips-sde-elf/lib/el/sof\libstdc++.a(eh_alloc.o)
 .bss           0x00000000a00012bc        0x0 d:/csgcc/bin/../lib/gcc/mips-sde-elf/4.3.2/../../../../mips-sde-elf/lib/el/sof\libstdc++.a(eh_call.o)
 .bss           0x00000000a00012bc        0x0 d:/csgcc/bin/../lib/gcc/mips-sde-elf/4.3.2/../../../../mips-sde-elf/lib/el/sof\libstdc++.a(eh_catch.o)
 .bss           0x00000000a00012bc        0x0 d:/csgcc/bin/../lib/gcc/mips-sde-elf/4.3.2/../../../../mips-sde-elf/lib/el/sof\libstdc++.a(eh_exception.o)
 .bss           0x00000000a00012bc        0x0 d:/csgcc/bin/../lib/gcc/mips-sde-elf/4.3.2/../../../../mips-sde-elf/lib/el/sof\libstdc++.a(eh_globals.o)
 .bss._ZL10eh_globals
                0x00000000a00012bc        0x8 d:/csgcc/bin/../lib/gcc/mips-sde-elf/4.3.2/../../../../mips-sde-elf/lib/el/sof\libstdc++.a(eh_globals.o)
 .bss           0x00000000a00012c4        0x0 d:/csgcc/bin/../lib/gcc/mips-sde-elf/4.3.2/../../../../mips-sde-elf/lib/el/sof\libstdc++.a(eh_term_handler.o)
 .bss           0x00000000a00012c4        0x0 d:/csgcc/bin/../lib/gcc/mips-sde-elf/4.3.2/../../../../mips-sde-elf/lib/el/sof\libstdc++.a(pure.o)
 .bss           0x00000000a00012c4        0x0 d:/csgcc/bin/../lib/gcc/mips-sde-elf/4.3.2/../../../../mips-sde-elf/lib/el/sof\libstdc++.a(si_class_type_info.o)
 .bss           0x00000000a00012c4        0x0 d:/csgcc/bin/../lib/gcc/mips-sde-elf/4.3.2/../../../../mips-sde-elf/lib/el/sof\libstdc++.a(tinfo.o)
 .bss           0x00000000a00012c4        0x0 d:/csgcc/bin/../lib/gcc/mips-sde-elf/4.3.2/../../../../mips-sde-elf/lib/el/sof\libstdc++.a(vterminate.o)
 .bss._ZZN9__gnu_cxx27__verbose_terminate_handlerEvE11terminating
                0x00000000a00012c4        0x1 d:/csgcc/bin/../lib/gcc/mips-sde-elf/4.3.2/../../../../mips-sde-elf/lib/el/sof\libstdc++.a(vterminate.o)
 .bss           0x00000000a00012c5        0x0 d:/csgcc/bin/../lib/gcc/mips-sde-elf/4.3.2/../../../../mips-sde-elf/lib/el/sof\libstdc++.a(cp-demangle.o)
 .bss           0x00000000a00012c5        0x0 d:/csgcc/bin/../lib/gcc/mips-sde-elf/4.3.2/../../../../mips-sde-elf/lib/el/sof\libstdc++.a(class_type_info.o)
 .bss           0x00000000a00012c5        0x0 d:/csgcc/bin/../lib/gcc/mips-sde-elf/4.3.2/../../../../mips-sde-elf/lib/el/sof\libstdc++.a(del_op.o)
 .bss           0x00000000a00012c5        0x0 d:/csgcc/bin/../lib/gcc/mips-sde-elf/4.3.2/../../../../mips-sde-elf/lib/el/sof\libstdc++.a(eh_type.o)
 *fill*         0x00000000a00012c5        0x3 00
 .bss           0x00000000a00012c8       0xc0 d:/csgcc/bin/../lib/gcc/mips-sde-elf/4.3.2/el/sof\libgcc.a(unwind-dw2.o)
 .bss           0x00000000a0001388        0xc d:/csgcc/bin/../lib/gcc/mips-sde-elf/4.3.2/el/sof\libgcc.a(unwind-dw2-fde.o)
 .bss           0x00000000a0001394        0x0 d:/csgcc/bin/../lib/gcc/mips-sde-elf/4.3.2/el/sof/crtend.o
 .bss           0x00000000a0001394        0x0 d:/csgcc/bin/../lib/gcc/mips-sde-elf/4.3.2/el/sof/crtn.o
 .bss           0x00000000a0001394        0x0 d:/csgcc/bin/../lib/gcc/mips-sde-elf/4.3.2/../../../../mips-sde-elf/lib/el/sof\libc.a(lib_a-abort.o)
 .bss           0x00000000a0001394        0x0 d:/csgcc/bin/../lib/gcc/mips-sde-elf/4.3.2/../../../../mips-sde-elf/lib/el/sof\libc.a(lib_a-ctime.o)
 .bss           0x00000000a0001394        0x0 d:/csgcc/bin/../lib/gcc/mips-sde-elf/4.3.2/../../../../mips-sde-elf/lib/el/sof\libc.a(lib_a-fputc.o)
 .bss           0x00000000a0001394        0x0 d:/csgcc/bin/../lib/gcc/mips-sde-elf/4.3.2/../../../../mips-sde-elf/lib/el/sof\libc.a(lib_a-fputs.o)
 .bss           0x00000000a0001394        0x0 d:/csgcc/bin/../lib/gcc/mips-sde-elf/4.3.2/../../../../mips-sde-elf/lib/el/sof\libc.a(lib_a-fvwrite.o)
 .bss           0x00000000a0001394        0x0 d:/csgcc/bin/../lib/gcc/mips-sde-elf/4.3.2/../../../../mips-sde-elf/lib/el/sof\libc.a(lib_a-impure.o)
 .bss           0x00000000a0001394        0x0 d:/csgcc/bin/../lib/gcc/mips-sde-elf/4.3.2/../../../../mips-sde-elf/lib/el/sof\libc.a(lib_a-lcltime.o)
 .bss           0x00000000a0001394        0x0 d:/csgcc/bin/../lib/gcc/mips-sde-elf/4.3.2/../../../../mips-sde-elf/lib/el/sof\libc.a(lib_a-lcltime_r.o)
 .bss           0x00000000a0001394        0x0 d:/csgcc/bin/../lib/gcc/mips-sde-elf/4.3.2/../../../../mips-sde-elf/lib/el/sof\libc.a(lib_a-malloc.o)
 .bss           0x00000000a0001394       0x28 d:/csgcc/bin/../lib/gcc/mips-sde-elf/4.3.2/../../../../mips-sde-elf/lib/el/sof\libc.a(lib_a-mallocr.o)
                0x00000000a0001394                __malloc_current_mallinfo
 .bss           0x00000000a00013bc        0x0 d:/csgcc/bin/../lib/gcc/mips-sde-elf/4.3.2/../../../../mips-sde-elf/lib/el/sof\libc.a(lib_a-memchr.o)
 .bss           0x00000000a00013bc        0x0 d:/csgcc/bin/../lib/gcc/mips-sde-elf/4.3.2/../../../../mips-sde-elf/lib/el/sof\libc.a(lib_a-memcmp.o)
 .bss           0x00000000a00013bc        0x0 d:/csgcc/bin/../lib/gcc/mips-sde-elf/4.3.2/../../../../mips-sde-elf/lib/el/sof\libc.a(lib_a-memcpy.o)
 .bss           0x00000000a00013bc        0x0 d:/csgcc/bin/../lib/gcc/mips-sde-elf/4.3.2/../../../../mips-sde-elf/lib/el/sof\libc.a(lib_a-memmove.o)
 .bss           0x00000000a00013bc        0x0 d:/csgcc/bin/../lib/gcc/mips-sde-elf/4.3.2/../../../../mips-sde-elf/lib/el/sof\libc.a(lib_a-memset.o)
 .bss           0x00000000a00013bc        0x0 d:/csgcc/bin/../lib/gcc/mips-sde-elf/4.3.2/../../../../mips-sde-elf/lib/el/sof\libc.a(lib_a-mktm_r.o)
 .bss           0x00000000a00013bc        0x0 d:/csgcc/bin/../lib/gcc/mips-sde-elf/4.3.2/../../../../mips-sde-elf/lib/el/sof\libc.a(lib_a-mlock.o)
 .bss           0x00000000a00013bc        0x0 d:/csgcc/bin/../lib/gcc/mips-sde-elf/4.3.2/../../../../mips-sde-elf/lib/el/sof\libc.a(lib_a-printf.o)
 .bss           0x00000000a00013bc        0x0 d:/csgcc/bin/../lib/gcc/mips-sde-elf/4.3.2/../../../../mips-sde-elf/lib/el/sof\libc.a(lib_a-putc.o)
 .bss           0x00000000a00013bc        0x0 d:/csgcc/bin/../lib/gcc/mips-sde-elf/4.3.2/../../../../mips-sde-elf/lib/el/sof\libc.a(lib_a-realloc.o)
 .bss           0x00000000a00013bc        0x0 d:/csgcc/bin/../lib/gcc/mips-sde-elf/4.3.2/../../../../mips-sde-elf/lib/el/sof\libc.a(lib_a-reallocr.o)
 .bss           0x00000000a00013bc        0x0 d:/csgcc/bin/../lib/gcc/mips-sde-elf/4.3.2/../../../../mips-sde-elf/lib/el/sof\libc.a(lib_a-sbrkr.o)
 .bss           0x00000000a00013bc        0x0 d:/csgcc/bin/../lib/gcc/mips-sde-elf/4.3.2/../../../../mips-sde-elf/lib/el/sof\libc.a(lib_a-signal.o)
 .bss           0x00000000a00013bc        0x0 d:/csgcc/bin/../lib/gcc/mips-sde-elf/4.3.2/../../../../mips-sde-elf/lib/el/sof\libc.a(lib_a-signalr.o)
 .bss           0x00000000a00013bc        0x0 d:/csgcc/bin/../lib/gcc/mips-sde-elf/4.3.2/../../../../mips-sde-elf/lib/el/sof\libc.a(lib_a-strcmp.o)
 .bss           0x00000000a00013bc        0x0 d:/csgcc/bin/../lib/gcc/mips-sde-elf/4.3.2/../../../../mips-sde-elf/lib/el/sof\libc.a(lib_a-strcpy.o)
 .bss           0x00000000a00013bc        0x0 d:/csgcc/bin/../lib/gcc/mips-sde-elf/4.3.2/../../../../mips-sde-elf/lib/el/sof\libc.a(lib_a-strlen.o)
 .bss           0x00000000a00013bc        0x0 d:/csgcc/bin/../lib/gcc/mips-sde-elf/4.3.2/../../../../mips-sde-elf/lib/el/sof\libc.a(lib_a-strncmp.o)
 .bss           0x00000000a00013bc        0x0 d:/csgcc/bin/../lib/gcc/mips-sde-elf/4.3.2/../../../../mips-sde-elf/lib/el/sof\libc.a(lib_a-tzvars.o)
 .bss           0x00000000a00013bc        0x0 d:/csgcc/bin/../lib/gcc/mips-sde-elf/4.3.2/../../../../mips-sde-elf/lib/el/sof\libc.a(lib_a-vfprintf.o)
 .bss           0x00000000a00013bc        0x0 d:/csgcc/bin/../lib/gcc/mips-sde-elf/4.3.2/../../../../mips-sde-elf/lib/el/sof\libc.a(lib_a-wbuf.o)
 .bss           0x00000000a00013bc        0x0 d:/csgcc/bin/../lib/gcc/mips-sde-elf/4.3.2/../../../../mips-sde-elf/lib/el/sof\libc.a(lib_a-wsetup.o)
 .bss           0x00000000a00013bc        0x0 d:/csgcc/bin/../lib/gcc/mips-sde-elf/4.3.2/../../../../mips-sde-elf/lib/el/sof\libc.a(lib_a-asctime.o)
 .bss           0x00000000a00013bc        0x0 d:/csgcc/bin/../lib/gcc/mips-sde-elf/4.3.2/../../../../mips-sde-elf/lib/el/sof\libc.a(lib_a-asctime_r.o)
 .bss           0x00000000a00013bc        0x0 d:/csgcc/bin/../lib/gcc/mips-sde-elf/4.3.2/../../../../mips-sde-elf/lib/el/sof\libc.a(lib_a-dtoa.o)
 .bss           0x00000000a00013bc        0x0 d:/csgcc/bin/../lib/gcc/mips-sde-elf/4.3.2/../../../../mips-sde-elf/lib/el/sof\libc.a(lib_a-fflush.o)
 .bss           0x00000000a00013bc        0x0 d:/csgcc/bin/../lib/gcc/mips-sde-elf/4.3.2/../../../../mips-sde-elf/lib/el/sof\libc.a(lib_a-findfp.o)
 .bss           0x00000000a00013bc        0x0 d:/csgcc/bin/../lib/gcc/mips-sde-elf/4.3.2/../../../../mips-sde-elf/lib/el/sof\libc.a(lib_a-freer.o)
 .bss           0x00000000a00013bc        0x0 d:/csgcc/bin/../lib/gcc/mips-sde-elf/4.3.2/../../../../mips-sde-elf/lib/el/sof\libc.a(lib_a-fwalk.o)
 .bss           0x00000000a00013bc        0x0 d:/csgcc/bin/../lib/gcc/mips-sde-elf/4.3.2/../../../../mips-sde-elf/lib/el/sof\libc.a(lib_a-gettzinfo.o)
 .bss           0x00000000a00013bc        0x0 d:/csgcc/bin/../lib/gcc/mips-sde-elf/4.3.2/../../../../mips-sde-elf/lib/el/sof\libc.a(lib_a-locale.o)
 .bss           0x00000000a00013bc        0x0 d:/csgcc/bin/../lib/gcc/mips-sde-elf/4.3.2/../../../../mips-sde-elf/lib/el/sof\libc.a(lib_a-makebuf.o)
 .bss           0x00000000a00013bc        0x0 d:/csgcc/bin/../lib/gcc/mips-sde-elf/4.3.2/../../../../mips-sde-elf/lib/el/sof\libc.a(lib_a-mprec.o)
 .bss           0x00000000a00013bc        0x0 d:/csgcc/bin/../lib/gcc/mips-sde-elf/4.3.2/../../../../mips-sde-elf/lib/el/sof\libc.a(lib_a-reent.o)
 .bss           0x00000000a00013bc        0x0 d:/csgcc/bin/../lib/gcc/mips-sde-elf/4.3.2/../../../../mips-sde-elf/lib/el/sof\libc.a(lib_a-s_isinfd.o)
 .bss           0x00000000a00013bc        0x0 d:/csgcc/bin/../lib/gcc/mips-sde-elf/4.3.2/../../../../mips-sde-elf/lib/el/sof\libc.a(lib_a-s_isnand.o)
 .bss           0x00000000a00013bc        0x0 d:/csgcc/bin/../lib/gcc/mips-sde-elf/4.3.2/../../../../mips-sde-elf/lib/el/sof\libc.a(lib_a-sprintf.o)
 .bss           0x00000000a00013bc        0x0 d:/csgcc/bin/../lib/gcc/mips-sde-elf/4.3.2/../../../../mips-sde-elf/lib/el/sof\libc.a(lib_a-stdio.o)
 .bss           0x00000000a00013bc        0x0 d:/csgcc/bin/../lib/gcc/mips-sde-elf/4.3.2/../../../../mips-sde-elf/lib/el/sof\libc.a(lib_a-writer.o)
 .bss           0x00000000a00013bc        0x0 d:/csgcc/bin/../lib/gcc/mips-sde-elf/4.3.2/../../../../mips-sde-elf/lib/el/sof\libc.a(lib_a-callocr.o)
 .bss           0x00000000a00013bc        0x0 d:/csgcc/bin/../lib/gcc/mips-sde-elf/4.3.2/../../../../mips-sde-elf/lib/el/sof\libc.a(lib_a-closer.o)
 .bss           0x00000000a00013bc        0x0 d:/csgcc/bin/../lib/gcc/mips-sde-elf/4.3.2/../../../../mips-sde-elf/lib/el/sof\libc.a(lib_a-fclose.o)
 .bss           0x00000000a00013bc        0x0 d:/csgcc/bin/../lib/gcc/mips-sde-elf/4.3.2/../../../../mips-sde-elf/lib/el/sof\libc.a(lib_a-fstatr.o)
 .bss           0x00000000a00013bc        0x0 d:/csgcc/bin/../lib/gcc/mips-sde-elf/4.3.2/../../../../mips-sde-elf/lib/el/sof\libc.a(lib_a-isattyr.o)
 .bss           0x00000000a00013bc        0x0 d:/csgcc/bin/../lib/gcc/mips-sde-elf/4.3.2/../../../../mips-sde-elf/lib/el/sof\libc.a(lib_a-lseekr.o)
 .bss           0x00000000a00013bc        0x0 d:/csgcc/bin/../lib/gcc/mips-sde-elf/4.3.2/../../../../mips-sde-elf/lib/el/sof\libc.a(lib_a-readr.o)
 .bss           0x00000000a00013bc        0x0 d:/csgcc/bin/../lib/gcc/mips-sde-elf/4.3.2/../../../../mips-sde-elf/lib/el/sof\libcs3.a(start_c.o)
 .bss           0x00000000a00013bc        0x0 d:/csgcc/bin/../lib/gcc/mips-sde-elf/4.3.2/../../../../mips-sde-elf/lib/el/sof\libcs3unhosted.a(unhosted-_exit.o)
 .bss           0x00000000a00013bc        0x0 d:/csgcc/bin/../lib/gcc/mips-sde-elf/4.3.2/../../../../mips-sde-elf/lib/el/sof\libcs3unhosted.a(unhosted-close.o)
 .bss           0x00000000a00013bc        0x0 d:/csgcc/bin/../lib/gcc/mips-sde-elf/4.3.2/../../../../mips-sde-elf/lib/el/sof\libcs3unhosted.a(unhosted-fstat.o)
 .bss           0x00000000a00013bc        0x0 d:/csgcc/bin/../lib/gcc/mips-sde-elf/4.3.2/../../../../mips-sde-elf/lib/el/sof\libcs3unhosted.a(unhosted-isatty.o)
 .bss           0x00000000a00013bc        0x0 d:/csgcc/bin/../lib/gcc/mips-sde-elf/4.3.2/../../../../mips-sde-elf/lib/el/sof\libcs3unhosted.a(unhosted-lseek.o)
 .bss           0x00000000a00013bc        0x0 d:/csgcc/bin/../lib/gcc/mips-sde-elf/4.3.2/../../../../mips-sde-elf/lib/el/sof\libcs3unhosted.a(unhosted-open.o)
 .bss           0x00000000a00013bc        0x0 d:/csgcc/bin/../lib/gcc/mips-sde-elf/4.3.2/../../../../mips-sde-elf/lib/el/sof\libcs3unhosted.a(unhosted-sbrk.o)
 .bss           0x00000000a00013bc        0x0 d:/csgcc/bin/../lib/gcc/mips-sde-elf/4.3.2/../../../../mips-sde-elf/lib/el/sof\libcs3unhosted.a(unhosted-getpid.o)
 .bss           0x00000000a00013bc        0x0 d:/csgcc/bin/../lib/gcc/mips-sde-elf/4.3.2/../../../../mips-sde-elf/lib/el/sof\libcs3unhosted.a(unhosted-kill.o)
 .bss           0x00000000a00013bc        0x0 d:/csgcc/bin/../lib/gcc/mips-sde-elf/4.3.2/../../../../mips-sde-elf/lib/el/sof\libcs3unhosted.a(start.o)
 .bss           0x00000000a00013bc        0x0 d:/csgcc/bin/../lib/gcc/mips-sde-elf/4.3.2/el/sof\libgcc.a(_udivdi3.o)
 .bss           0x00000000a00013bc        0x0 d:/csgcc/bin/../lib/gcc/mips-sde-elf/4.3.2/el/sof\libgcc.a(_umoddi3.o)
 .bss           0x00000000a00013bc        0x0 d:/csgcc/bin/../lib/gcc/mips-sde-elf/4.3.2/el/sof\libgcc.a(_addsub_df.o)
 .bss           0x00000000a00013bc        0x0 d:/csgcc/bin/../lib/gcc/mips-sde-elf/4.3.2/el/sof\libgcc.a(_mul_df.o)
 .bss           0x00000000a00013bc        0x0 d:/csgcc/bin/../lib/gcc/mips-sde-elf/4.3.2/el/sof\libgcc.a(_div_df.o)
 .bss           0x00000000a00013bc        0x0 d:/csgcc/bin/../lib/gcc/mips-sde-elf/4.3.2/el/sof\libgcc.a(_eq_df.o)
 .bss           0x00000000a00013bc        0x0 d:/csgcc/bin/../lib/gcc/mips-sde-elf/4.3.2/el/sof\libgcc.a(_ne_df.o)
 .bss           0x00000000a00013bc        0x0 d:/csgcc/bin/../lib/gcc/mips-sde-elf/4.3.2/el/sof\libgcc.a(_gt_df.o)
 .bss           0x00000000a00013bc        0x0 d:/csgcc/bin/../lib/gcc/mips-sde-elf/4.3.2/el/sof\libgcc.a(_ge_df.o)
 .bss           0x00000000a00013bc        0x0 d:/csgcc/bin/../lib/gcc/mips-sde-elf/4.3.2/el/sof\libgcc.a(_lt_df.o)
 .bss           0x00000000a00013bc        0x0 d:/csgcc/bin/../lib/gcc/mips-sde-elf/4.3.2/el/sof\libgcc.a(_si_to_df.o)
 .bss           0x00000000a00013bc        0x0 d:/csgcc/bin/../lib/gcc/mips-sde-elf/4.3.2/el/sof\libgcc.a(_df_to_si.o)
 .bss           0x00000000a00013bc        0x0 d:/csgcc/bin/../lib/gcc/mips-sde-elf/4.3.2/el/sof\libgcc.a(_thenan_df.o)
 .bss           0x00000000a00013bc        0x0 d:/csgcc/bin/../lib/gcc/mips-sde-elf/4.3.2/el/sof\libgcc.a(_usi_to_df.o)
 .bss           0x00000000a00013bc        0x0 d:/csgcc/bin/../lib/gcc/mips-sde-elf/4.3.2/el/sof\libgcc.a(_lshrdi3.o)
 .bss           0x00000000a00013bc        0x0 d:/csgcc/bin/../lib/gcc/mips-sde-elf/4.3.2/el/sof\libgcc.a(_ashldi3.o)
 .bss           0x00000000a00013bc        0x0 d:/csgcc/bin/../lib/gcc/mips-sde-elf/4.3.2/el/sof\libgcc.a(_ucmpdi2.o)
 .bss           0x00000000a00013bc        0x0 d:/csgcc/bin/../lib/gcc/mips-sde-elf/4.3.2/el/sof\libgcc.a(_pack_df.o)
 .bss           0x00000000a00013bc        0x0 d:/csgcc/bin/../lib/gcc/mips-sde-elf/4.3.2/el/sof\libgcc.a(_unpack_df.o)
 .bss           0x00000000a00013bc        0x0 d:/csgcc/bin/../lib/gcc/mips-sde-elf/4.3.2/el/sof\libgcc.a(_fpcmp_parts_df.o)
 .bss           0x00000000a00013bc        0x0 d:/csgcc/bin/../lib/gcc/mips-sde-elf/4.3.2/../../../../mips-sde-elf/lib/el/sof\libc.a(lib_a-errno.o)
 .bss           0x00000000a00013bc        0x0 d:/csgcc/bin/../lib/gcc/mips-sde-elf/4.3.2/../../../../mips-sde-elf/lib/el/sof\libc.a(lib_a-init.o)
 .bss           0x00000000a00013bc        0x0 d:/csgcc/bin/../lib/gcc/mips-sde-elf/4.3.2/../../../../mips-sde-elf/lib/el/sof\libcs3.a(heap.o)
 *(COMMON)
                0x00000000a00013c0                . = ALIGN (0x8)
 *fill*         0x00000000a00013bc        0x4 00
 *(.ram.b)
                0x00000000a00013c0                _end = .
                0x00000000a00013c0                __end = .
                0x0000000000007ff0                __cs3_region_size_ram = 0x7ff0
                0x00000000bd016138                __cs3_region_init_ram = _etext
                0x00000000000008b8                __cs3_region_init_size_ram = (_edata - ADDR (.data))
                0x0000000000000af8                __cs3_region_zero_size_ram = (_end - _edata)
                0x0000000000006c40                AVAILABLE_RAM_FOR_STACK_PLUS_HEAP = (0x7ff0 - (SIZEOF (.data) + SIZEOF (.bss)))

.vector_0       0x00000000bfc02200        0x0
 *(.vector_0)
                0x0000000000000001                ASSERT (((_vector_spacing == 0x0) || (SIZEOF (.vector_0) <= (_vector_spacing << 0x5))), function at exception vector 0 too large)

.vector_1       0x00000000bfc02220        0x0
 *(.vector_1)
                0x0000000000000001                ASSERT (((_vector_spacing == 0x0) || (SIZEOF (.vector_1) <= (_vector_spacing << 0x5))), function at exception vector 1 too large)

.vector_2       0x00000000bfc02240        0x0
 *(.vector_2)
                0x0000000000000001                ASSERT (((_vector_spacing == 0x0) || (SIZEOF (.vector_2) <= (_vector_spacing << 0x5))), function at exception vector 2 too large)

.vector_3       0x00000000bfc02260        0x0
 *(.vector_3)
                0x0000000000000001                ASSERT (((_vector_spacing == 0x0) || (SIZEOF (.vector_3) <= (_vector_spacing << 0x5))), function at exception vector 3 too large)

.vector_4       0x00000000bfc02280        0xc
 *(.vector_4)
 .vector_4      0x00000000bfc02280        0xc obj/ISRwrapper.o
                0x0000000000000001                ASSERT (((_vector_spacing == 0x0) || (SIZEOF (.vector_4) <= (_vector_spacing << 0x5))), function at exception vector 4 too large)

.vector_5       0x00000000bfc022a0        0x0
 *(.vector_5)
                0x0000000000000001                ASSERT (((_vector_spacing == 0x0) || (SIZEOF (.vector_5) <= (_vector_spacing << 0x5))), function at exception vector 5 too large)

.vector_6       0x00000000bfc022c0        0x0
 *(.vector_6)
                0x0000000000000001                ASSERT (((_vector_spacing == 0x0) || (SIZEOF (.vector_6) <= (_vector_spacing << 0x5))), function at exception vector 6 too large)

.vector_7       0x00000000bfc022e0        0x0
 *(.vector_7)
                0x0000000000000001                ASSERT (((_vector_spacing == 0x0) || (SIZEOF (.vector_7) <= (_vector_spacing << 0x5))), function at exception vector 7 too large)

.vector_8       0x00000000bfc02300        0x0
 *(.vector_8)
                0x0000000000000001                ASSERT (((_vector_spacing == 0x0) || (SIZEOF (.vector_8) <= (_vector_spacing << 0x5))), function at exception vector 8 too large)

.vector_9       0x00000000bfc02320        0x0
 *(.vector_9)
                0x0000000000000001                ASSERT (((_vector_spacing == 0x0) || (SIZEOF (.vector_9) <= (_vector_spacing << 0x5))), function at exception vector 9 too large)

.vector_10      0x00000000bfc02340        0x0
 *(.vector_10)
                0x0000000000000001                ASSERT (((_vector_spacing == 0x0) || (SIZEOF (.vector_10) <= (_vector_spacing << 0x5))), function at exception vector 10 too large)

.vector_11      0x00000000bfc02360        0x0
 *(.vector_11)
                0x0000000000000001                ASSERT (((_vector_spacing == 0x0) || (SIZEOF (.vector_11) <= (_vector_spacing << 0x5))), function at exception vector 11 too large)

.vector_12      0x00000000bfc02380        0x0
 *(.vector_12)
                0x0000000000000001                ASSERT (((_vector_spacing == 0x0) || (SIZEOF (.vector_12) <= (_vector_spacing << 0x5))), function at exception vector 12 too large)

.vector_13      0x00000000bfc023a0        0x0
 *(.vector_13)
                0x0000000000000001                ASSERT (((_vector_spacing == 0x0) || (SIZEOF (.vector_13) <= (_vector_spacing << 0x5))), function at exception vector 13 too large)

.vector_14      0x00000000bfc023c0        0x0
 *(.vector_14)
                0x0000000000000001                ASSERT (((_vector_spacing == 0x0) || (SIZEOF (.vector_14) <= (_vector_spacing << 0x5))), function at exception vector 14 too large)

.vector_15      0x00000000bfc023e0        0x0
 *(.vector_15)
                0x0000000000000001                ASSERT (((_vector_spacing == 0x0) || (SIZEOF (.vector_15) <= (_vector_spacing << 0x5))), function at exception vector 15 too large)

.vector_16      0x00000000bfc02400        0x0
 *(.vector_16)
                0x0000000000000001                ASSERT (((_vector_spacing == 0x0) || (SIZEOF (.vector_16) <= (_vector_spacing << 0x5))), function at exception vector 16 too large)

.vector_17      0x00000000bfc02420        0x0
 *(.vector_17)
                0x0000000000000001                ASSERT (((_vector_spacing == 0x0) || (SIZEOF (.vector_17) <= (_vector_spacing << 0x5))), function at exception vector 17 too large)

.vector_18      0x00000000bfc02440        0x0
 *(.vector_18)
                0x0000000000000001                ASSERT (((_vector_spacing == 0x0) || (SIZEOF (.vector_18) <= (_vector_spacing << 0x5))), function at exception vector 18 too large)

.vector_19      0x00000000bfc02460        0x0
 *(.vector_19)
                0x0000000000000001                ASSERT (((_vector_spacing == 0x0) || (SIZEOF (.vector_19) <= (_vector_spacing << 0x5))), function at exception vector 19 too large)

.vector_20      0x00000000bfc02480        0x0
 *(.vector_20)
                0x0000000000000001                ASSERT (((_vector_spacing == 0x0) || (SIZEOF (.vector_20) <= (_vector_spacing << 0x5))), function at exception vector 20 too large)

.vector_21      0x00000000bfc024a0        0x0
 *(.vector_21)
                0x0000000000000001                ASSERT (((_vector_spacing == 0x0) || (SIZEOF (.vector_21) <= (_vector_spacing << 0x5))), function at exception vector 21 too large)

.vector_22      0x00000000bfc024c0        0x0
 *(.vector_22)
                0x0000000000000001                ASSERT (((_vector_spacing == 0x0) || (SIZEOF (.vector_22) <= (_vector_spacing << 0x5))), function at exception vector 22 too large)

.vector_23      0x00000000bfc024e0        0x0
 *(.vector_23)
                0x0000000000000001                ASSERT (((_vector_spacing == 0x0) || (SIZEOF (.vector_23) <= (_vector_spacing << 0x5))), function at exception vector 23 too large)

.vector_24      0x00000000bfc02500        0xc
 *(.vector_24)
 .vector_24     0x00000000bfc02500        0xc obj/ISRwrapper.o
                0x0000000000000001                ASSERT (((_vector_spacing == 0x0) || (SIZEOF (.vector_24) <= (_vector_spacing << 0x5))), function at exception vector 24 too large)

.rel.dyn        0x00000000bd0169f0        0x0 load address 0x00000000bfc0250c
 .rel.dyn       0x0000000000000000        0x0 obj/CPP_Demo.o

.vector_25      0x00000000bfc02520        0x0
 *(.vector_25)
                0x0000000000000001                ASSERT (((_vector_spacing == 0x0) || (SIZEOF (.vector_25) <= (_vector_spacing << 0x5))), function at exception vector 25 too large)

.vector_26      0x00000000bfc02540        0x0
 *(.vector_26)
                0x0000000000000001                ASSERT (((_vector_spacing == 0x0) || (SIZEOF (.vector_26) <= (_vector_spacing << 0x5))), function at exception vector 26 too large)

.vector_27      0x00000000bfc02560        0x0
 *(.vector_27)
                0x0000000000000001                ASSERT (((_vector_spacing == 0x0) || (SIZEOF (.vector_27) <= (_vector_spacing << 0x5))), function at exception vector 27 too large)

.vector_28      0x00000000bfc02580        0x0
 *(.vector_28)
                0x0000000000000001                ASSERT (((_vector_spacing == 0x0) || (SIZEOF (.vector_28) <= (_vector_spacing << 0x5))), function at exception vector 28 too large)

.vector_29      0x00000000bfc025a0        0x0
 *(.vector_29)
                0x0000000000000001                ASSERT (((_vector_spacing == 0x0) || (SIZEOF (.vector_29) <= (_vector_spacing << 0x5))), function at exception vector 29 too large)

.vector_30      0x00000000bfc025c0        0x0
 *(.vector_30)
                0x0000000000000001                ASSERT (((_vector_spacing == 0x0) || (SIZEOF (.vector_30) <= (_vector_spacing << 0x5))), function at exception vector 30 too large)

.vector_31      0x00000000bfc025e0        0x0
 *(.vector_31)
                0x0000000000000001                ASSERT (((_vector_spacing == 0x0) || (SIZEOF (.vector_31) <= (_vector_spacing << 0x5))), function at exception vector 31 too large)

.vector_32      0x00000000bfc02600        0x0
 *(.vector_32)
                0x0000000000000001                ASSERT (((_vector_spacing == 0x0) || (SIZEOF (.vector_32) <= (_vector_spacing << 0x5))), function at exception vector 32 too large)

.vector_33      0x00000000bfc02620        0x0
 *(.vector_33)
                0x0000000000000001                ASSERT (((_vector_spacing == 0x0) || (SIZEOF (.vector_33) <= (_vector_spacing << 0x5))), function at exception vector 33 too large)

.vector_34      0x00000000bfc02640        0x0
 *(.vector_34)
                0x0000000000000001                ASSERT (((_vector_spacing == 0x0) || (SIZEOF (.vector_34) <= (_vector_spacing << 0x5))), function at exception vector 34 too large)

.vector_35      0x00000000bfc02660        0x0
 *(.vector_35)
                0x0000000000000001                ASSERT (((_vector_spacing == 0x0) || (SIZEOF (.vector_35) <= (_vector_spacing << 0x5))), function at exception vector 35 too large)

.vector_36      0x00000000bfc02680        0x0
 *(.vector_36)
                0x0000000000000001                ASSERT (((_vector_spacing == 0x0) || (SIZEOF (.vector_36) <= (_vector_spacing << 0x5))), function at exception vector 36 too large)

.vector_37      0x00000000bfc026a0        0x0
 *(.vector_37)
                0x0000000000000001                ASSERT (((_vector_spacing == 0x0) || (SIZEOF (.vector_37) <= (_vector_spacing << 0x5))), function at exception vector 37 too large)

.vector_38      0x00000000bfc026c0        0x0
 *(.vector_38)
                0x0000000000000001                ASSERT (((_vector_spacing == 0x0) || (SIZEOF (.vector_38) <= (_vector_spacing << 0x5))), function at exception vector 38 too large)

.vector_39      0x00000000bfc026e0        0x0
 *(.vector_39)
                0x0000000000000001                ASSERT (((_vector_spacing == 0x0) || (SIZEOF (.vector_39) <= (_vector_spacing << 0x5))), function at exception vector 39 too large)

.vector_40      0x00000000bfc02700        0x0
 *(.vector_40)
                0x0000000000000001                ASSERT (((_vector_spacing == 0x0) || (SIZEOF (.vector_40) <= (_vector_spacing << 0x5))), function at exception vector 40 too large)

.vector_41      0x00000000bfc02720        0x0
 *(.vector_41)
                0x0000000000000001                ASSERT (((_vector_spacing == 0x0) || (SIZEOF (.vector_41) <= (_vector_spacing << 0x5))), function at exception vector 41 too large)

.vector_42      0x00000000bfc02740        0x0
 *(.vector_42)
                0x0000000000000001                ASSERT (((_vector_spacing == 0x0) || (SIZEOF (.vector_42) <= (_vector_spacing << 0x5))), function at exception vector 42 too large)

.vector_43      0x00000000bfc02760        0x0
 *(.vector_43)
                0x0000000000000001                ASSERT (((_vector_spacing == 0x0) || (SIZEOF (.vector_43) <= (_vector_spacing << 0x5))), function at exception vector 43 too large)

.vector_44      0x00000000bfc02780        0x0
 *(.vector_44)
                0x0000000000000001                ASSERT (((_vector_spacing == 0x0) || (SIZEOF (.vector_44) <= (_vector_spacing << 0x5))), function at exception vector 44 too large)

.vector_45      0x00000000bfc027a0        0x0
 *(.vector_45)
                0x0000000000000001                ASSERT (((_vector_spacing == 0x0) || (SIZEOF (.vector_45) <= (_vector_spacing << 0x5))), function at exception vector 45 too large)

.vector_46      0x00000000bfc027c0        0x0
 *(.vector_46)
                0x0000000000000001                ASSERT (((_vector_spacing == 0x0) || (SIZEOF (.vector_46) <= (_vector_spacing << 0x5))), function at exception vector 46 too large)

.vector_47      0x00000000bfc027e0        0x0
 *(.vector_47)
                0x0000000000000001                ASSERT (((_vector_spacing == 0x0) || (SIZEOF (.vector_47) <= (_vector_spacing << 0x5))), function at exception vector 47 too large)

.vector_48      0x00000000bfc02800        0x0
 *(.vector_48)
                0x0000000000000001                ASSERT (((_vector_spacing == 0x0) || (SIZEOF (.vector_48) <= (_vector_spacing << 0x5))), function at exception vector 48 too large)

.vector_49      0x00000000bfc02820        0x0
 *(.vector_49)
                0x0000000000000001                ASSERT (((_vector_spacing == 0x0) || (SIZEOF (.vector_49) <= (_vector_spacing << 0x5))), function at exception vector 49 too large)

.vector_50      0x00000000bfc02840        0x0
 *(.vector_50)
                0x0000000000000001                ASSERT (((_vector_spacing == 0x0) || (SIZEOF (.vector_50) <= (_vector_spacing << 0x5))), function at exception vector 50 too large)

.vector_51      0x00000000bfc02860        0x0
 *(.vector_51)
                0x0000000000000001                ASSERT (((_vector_spacing == 0x0) || (SIZEOF (.vector_51) <= (_vector_spacing << 0x5))), function at exception vector 51 too large)

.vector_52      0x00000000bfc02880        0x0
 *(.vector_52)
                0x0000000000000001                ASSERT (((_vector_spacing == 0x0) || (SIZEOF (.vector_52) <= (_vector_spacing << 0x5))), function at exception vector 52 too large)

.vector_53      0x00000000bfc028a0        0x0
 *(.vector_53)
                0x0000000000000001                ASSERT (((_vector_spacing == 0x0) || (SIZEOF (.vector_53) <= (_vector_spacing << 0x5))), function at exception vector 53 too large)

.vector_54      0x00000000bfc028c0        0x0
 *(.vector_54)
                0x0000000000000001                ASSERT (((_vector_spacing == 0x0) || (SIZEOF (.vector_54) <= (_vector_spacing << 0x5))), function at exception vector 54 too large)

.vector_55      0x00000000bfc028e0        0x0
 *(.vector_55)
                0x0000000000000001                ASSERT (((_vector_spacing == 0x0) || (SIZEOF (.vector_55) <= (_vector_spacing << 0x5))), function at exception vector 55 too large)

.vector_56      0x00000000bfc02900        0x0
 *(.vector_56)
                0x0000000000000001                ASSERT (((_vector_spacing == 0x0) || (SIZEOF (.vector_56) <= (_vector_spacing << 0x5))), function at exception vector 56 too large)

.vector_57      0x00000000bfc02920        0x0
 *(.vector_57)
                0x0000000000000001                ASSERT (((_vector_spacing == 0x0) || (SIZEOF (.vector_57) <= (_vector_spacing << 0x5))), function at exception vector 57 too large)

.vector_58      0x00000000bfc02940        0x0
 *(.vector_58)
                0x0000000000000001                ASSERT (((_vector_spacing == 0x0) || (SIZEOF (.vector_58) <= (_vector_spacing << 0x5))), function at exception vector 58 too large)

.vector_59      0x00000000bfc02960        0x0
 *(.vector_59)
                0x0000000000000001                ASSERT (((_vector_spacing == 0x0) || (SIZEOF (.vector_59) <= (_vector_spacing << 0x5))), function at exception vector 59 too large)

.vector_60      0x00000000bfc02980        0x0
 *(.vector_60)
                0x0000000000000001                ASSERT (((_vector_spacing == 0x0) || (SIZEOF (.vector_60) <= (_vector_spacing << 0x5))), function at exception vector 60 too large)

.vector_61      0x00000000bfc029a0        0x0
 *(.vector_61)
                0x0000000000000001                ASSERT (((_vector_spacing == 0x0) || (SIZEOF (.vector_61) <= (_vector_spacing << 0x5))), function at exception vector 61 too large)

.vector_62      0x00000000bfc029c0        0x0
 *(.vector_62)
                0x0000000000000001                ASSERT (((_vector_spacing == 0x0) || (SIZEOF (.vector_62) <= (_vector_spacing << 0x5))), function at exception vector 62 too large)

.vector_63      0x00000000bfc029e0        0x0
 *(.vector_63)
                0x0000000000000001                ASSERT (((_vector_spacing == 0x0) || (SIZEOF (.vector_63) <= (_vector_spacing << 0x5))), function at exception vector 63 too large)

.stab
 *(.stab)

.stabstr
 *(.stabstr)

.debug
 *(.debug)

.line
 *(.line)

.debug_srcinfo
 *(.debug_srcinfo)

.debug_sfnames
 *(.debug_sfnames)

.debug_aranges  0x0000000000000000     0x1038
 *(.debug_aranges)
 .debug_aranges
                0x0000000000000000       0x28 d:/csgcc/bin/../lib/gcc/mips-sde-elf/4.3.2/el/sof/crti.o
 .debug_aranges
                0x0000000000000028       0x20 obj/PIC32MX-reset.o
 .debug_aranges
                0x0000000000000048       0x28 obj/ISRwrapper.o
 .debug_aranges
                0x0000000000000070       0x40 obj/CPP_Demo.o
 .debug_aranges
                0x00000000000000b0       0x20 obj/DRN_PIC32MX_UART1.o
 .debug_aranges
                0x00000000000000d0       0x20 obj/DRN_PIC32MX_CS_glue.o
 .debug_aranges
                0x00000000000000f0       0x20 obj/PIC32MX_time.o
 .debug_aranges
                0x0000000000000110       0x20 obj/int_enable_interrupts_lib.o
 .debug_aranges
                0x0000000000000130       0x20 obj/int_disable_interrupts_lib.o
 .debug_aranges
                0x0000000000000150       0x20 obj/int_restore_interrupts_lib.o
 .debug_aranges
                0x0000000000000170       0x20 obj/pcache.o
 .debug_aranges
                0x0000000000000190       0x60 d:/csgcc/bin/../lib/gcc/mips-sde-elf/4.3.2/../../../../mips-sde-elf/lib/el/sof\libstdc++.a(eh_personality.o)
 .debug_aranges
                0x00000000000001f0       0x48 d:/csgcc/bin/../lib/gcc/mips-sde-elf/4.3.2/../../../../mips-sde-elf/lib/el/sof\libstdc++.a(eh_terminate.o)
 .debug_aranges
                0x0000000000000238       0x30 d:/csgcc/bin/../lib/gcc/mips-sde-elf/4.3.2/../../../../mips-sde-elf/lib/el/sof\libstdc++.a(eh_throw.o)
 .debug_aranges
                0x0000000000000268       0x30 d:/csgcc/bin/../lib/gcc/mips-sde-elf/4.3.2/../../../../mips-sde-elf/lib/el/sof\libstdc++.a(eh_alloc.o)
 .debug_aranges
                0x0000000000000298       0x20 d:/csgcc/bin/../lib/gcc/mips-sde-elf/4.3.2/../../../../mips-sde-elf/lib/el/sof\libstdc++.a(eh_call.o)
 .debug_aranges
                0x00000000000002b8       0x38 d:/csgcc/bin/../lib/gcc/mips-sde-elf/4.3.2/../../../../mips-sde-elf/lib/el/sof\libstdc++.a(eh_catch.o)
 .debug_aranges
                0x00000000000002f0       0x88 d:/csgcc/bin/../lib/gcc/mips-sde-elf/4.3.2/../../../../mips-sde-elf/lib/el/sof\libstdc++.a(eh_exception.o)
 .debug_aranges
                0x0000000000000378       0x28 d:/csgcc/bin/../lib/gcc/mips-sde-elf/4.3.2/../../../../mips-sde-elf/lib/el/sof\libstdc++.a(eh_globals.o)
 .debug_aranges
                0x00000000000003a0       0x20 d:/csgcc/bin/../lib/gcc/mips-sde-elf/4.3.2/../../../../mips-sde-elf/lib/el/sof\libstdc++.a(pure.o)
 .debug_aranges
                0x00000000000003c0       0x48 d:/csgcc/bin/../lib/gcc/mips-sde-elf/4.3.2/../../../../mips-sde-elf/lib/el/sof\libstdc++.a(si_class_type_info.o)
 .debug_aranges
                0x0000000000000408       0x50 d:/csgcc/bin/../lib/gcc/mips-sde-elf/4.3.2/../../../../mips-sde-elf/lib/el/sof\libstdc++.a(tinfo.o)
 .debug_aranges
                0x0000000000000458       0x20 d:/csgcc/bin/../lib/gcc/mips-sde-elf/4.3.2/../../../../mips-sde-elf/lib/el/sof\libstdc++.a(vterminate.o)
 .debug_aranges
                0x0000000000000478       0x20 d:/csgcc/bin/../lib/gcc/mips-sde-elf/4.3.2/../../../../mips-sde-elf/lib/el/sof\libstdc++.a(cp-demangle.o)
 .debug_aranges
                0x0000000000000498       0x58 d:/csgcc/bin/../lib/gcc/mips-sde-elf/4.3.2/../../../../mips-sde-elf/lib/el/sof\libstdc++.a(class_type_info.o)
 .debug_aranges
                0x00000000000004f0       0x20 d:/csgcc/bin/../lib/gcc/mips-sde-elf/4.3.2/../../../../mips-sde-elf/lib/el/sof\libstdc++.a(del_op.o)
 .debug_aranges
                0x0000000000000510       0x20 d:/csgcc/bin/../lib/gcc/mips-sde-elf/4.3.2/../../../../mips-sde-elf/lib/el/sof\libstdc++.a(eh_type.o)
 .debug_aranges
                0x0000000000000530       0x20 d:/csgcc/bin/../lib/gcc/mips-sde-elf/4.3.2/el/sof\libgcc.a(unwind-dw2.o)
 .debug_aranges
                0x0000000000000550       0x20 d:/csgcc/bin/../lib/gcc/mips-sde-elf/4.3.2/el/sof\libgcc.a(unwind-dw2-fde.o)
 .debug_aranges
                0x0000000000000570       0x28 d:/csgcc/bin/../lib/gcc/mips-sde-elf/4.3.2/el/sof/crtn.o
 .debug_aranges
                0x0000000000000598       0x20 d:/csgcc/bin/../lib/gcc/mips-sde-elf/4.3.2/../../../../mips-sde-elf/lib/el/sof\libc.a(lib_a-abort.o)
 .debug_aranges
                0x00000000000005b8       0x20 d:/csgcc/bin/../lib/gcc/mips-sde-elf/4.3.2/../../../../mips-sde-elf/lib/el/sof\libc.a(lib_a-ctime.o)
 .debug_aranges
                0x00000000000005d8       0x20 d:/csgcc/bin/../lib/gcc/mips-sde-elf/4.3.2/../../../../mips-sde-elf/lib/el/sof\libc.a(lib_a-fputc.o)
 .debug_aranges
                0x00000000000005f8       0x20 d:/csgcc/bin/../lib/gcc/mips-sde-elf/4.3.2/../../../../mips-sde-elf/lib/el/sof\libc.a(lib_a-fputs.o)
 .debug_aranges
                0x0000000000000618       0x20 d:/csgcc/bin/../lib/gcc/mips-sde-elf/4.3.2/../../../../mips-sde-elf/lib/el/sof\libc.a(lib_a-fvwrite.o)
 .debug_aranges
                0x0000000000000638       0x20 d:/csgcc/bin/../lib/gcc/mips-sde-elf/4.3.2/../../../../mips-sde-elf/lib/el/sof\libc.a(lib_a-lcltime.o)
 .debug_aranges
                0x0000000000000658       0x20 d:/csgcc/bin/../lib/gcc/mips-sde-elf/4.3.2/../../../../mips-sde-elf/lib/el/sof\libc.a(lib_a-lcltime_r.o)
 .debug_aranges
                0x0000000000000678       0x20 d:/csgcc/bin/../lib/gcc/mips-sde-elf/4.3.2/../../../../mips-sde-elf/lib/el/sof\libc.a(lib_a-malloc.o)
 .debug_aranges
                0x0000000000000698       0x20 d:/csgcc/bin/../lib/gcc/mips-sde-elf/4.3.2/../../../../mips-sde-elf/lib/el/sof\libc.a(lib_a-mallocr.o)
 .debug_aranges
                0x00000000000006b8       0x20 d:/csgcc/bin/../lib/gcc/mips-sde-elf/4.3.2/../../../../mips-sde-elf/lib/el/sof\libc.a(lib_a-memchr.o)
 .debug_aranges
                0x00000000000006d8       0x20 d:/csgcc/bin/../lib/gcc/mips-sde-elf/4.3.2/../../../../mips-sde-elf/lib/el/sof\libc.a(lib_a-memcmp.o)
 .debug_aranges
                0x00000000000006f8       0x20 d:/csgcc/bin/../lib/gcc/mips-sde-elf/4.3.2/../../../../mips-sde-elf/lib/el/sof\libc.a(lib_a-memcpy.o)
 .debug_aranges
                0x0000000000000718       0x20 d:/csgcc/bin/../lib/gcc/mips-sde-elf/4.3.2/../../../../mips-sde-elf/lib/el/sof\libc.a(lib_a-memmove.o)
 .debug_aranges
                0x0000000000000738       0x20 d:/csgcc/bin/../lib/gcc/mips-sde-elf/4.3.2/../../../../mips-sde-elf/lib/el/sof\libc.a(lib_a-memset.o)
 .debug_aranges
                0x0000000000000758       0x20 d:/csgcc/bin/../lib/gcc/mips-sde-elf/4.3.2/../../../../mips-sde-elf/lib/el/sof\libc.a(lib_a-mktm_r.o)
 .debug_aranges
                0x0000000000000778       0x20 d:/csgcc/bin/../lib/gcc/mips-sde-elf/4.3.2/../../../../mips-sde-elf/lib/el/sof\libc.a(lib_a-mlock.o)
 .debug_aranges
                0x0000000000000798       0x20 d:/csgcc/bin/../lib/gcc/mips-sde-elf/4.3.2/../../../../mips-sde-elf/lib/el/sof\libc.a(lib_a-printf.o)
 .debug_aranges
                0x00000000000007b8       0x20 d:/csgcc/bin/../lib/gcc/mips-sde-elf/4.3.2/../../../../mips-sde-elf/lib/el/sof\libc.a(lib_a-putc.o)
 .debug_aranges
                0x00000000000007d8       0x20 d:/csgcc/bin/../lib/gcc/mips-sde-elf/4.3.2/../../../../mips-sde-elf/lib/el/sof\libc.a(lib_a-realloc.o)
 .debug_aranges
                0x00000000000007f8       0x20 d:/csgcc/bin/../lib/gcc/mips-sde-elf/4.3.2/../../../../mips-sde-elf/lib/el/sof\libc.a(lib_a-reallocr.o)
 .debug_aranges
                0x0000000000000818       0x20 d:/csgcc/bin/../lib/gcc/mips-sde-elf/4.3.2/../../../../mips-sde-elf/lib/el/sof\libc.a(lib_a-sbrkr.o)
 .debug_aranges
                0x0000000000000838       0x20 d:/csgcc/bin/../lib/gcc/mips-sde-elf/4.3.2/../../../../mips-sde-elf/lib/el/sof\libc.a(lib_a-signal.o)
 .debug_aranges
                0x0000000000000858       0x20 d:/csgcc/bin/../lib/gcc/mips-sde-elf/4.3.2/../../../../mips-sde-elf/lib/el/sof\libc.a(lib_a-signalr.o)
 .debug_aranges
                0x0000000000000878       0x20 d:/csgcc/bin/../lib/gcc/mips-sde-elf/4.3.2/../../../../mips-sde-elf/lib/el/sof\libc.a(lib_a-strcmp.o)
 .debug_aranges
                0x0000000000000898       0x20 d:/csgcc/bin/../lib/gcc/mips-sde-elf/4.3.2/../../../../mips-sde-elf/lib/el/sof\libc.a(lib_a-strcpy.o)
 .debug_aranges
                0x00000000000008b8       0x20 d:/csgcc/bin/../lib/gcc/mips-sde-elf/4.3.2/../../../../mips-sde-elf/lib/el/sof\libc.a(lib_a-strncmp.o)
 .debug_aranges
                0x00000000000008d8       0x20 d:/csgcc/bin/../lib/gcc/mips-sde-elf/4.3.2/../../../../mips-sde-elf/lib/el/sof\libc.a(lib_a-vfprintf.o)
 .debug_aranges
                0x00000000000008f8       0x20 d:/csgcc/bin/../lib/gcc/mips-sde-elf/4.3.2/../../../../mips-sde-elf/lib/el/sof\libc.a(lib_a-wbuf.o)
 .debug_aranges
                0x0000000000000918       0x20 d:/csgcc/bin/../lib/gcc/mips-sde-elf/4.3.2/../../../../mips-sde-elf/lib/el/sof\libc.a(lib_a-wsetup.o)
 .debug_aranges
                0x0000000000000938       0x20 d:/csgcc/bin/../lib/gcc/mips-sde-elf/4.3.2/../../../../mips-sde-elf/lib/el/sof\libc.a(lib_a-asctime.o)
 .debug_aranges
                0x0000000000000958       0x20 d:/csgcc/bin/../lib/gcc/mips-sde-elf/4.3.2/../../../../mips-sde-elf/lib/el/sof\libc.a(lib_a-asctime_r.o)
 .debug_aranges
                0x0000000000000978       0x20 d:/csgcc/bin/../lib/gcc/mips-sde-elf/4.3.2/../../../../mips-sde-elf/lib/el/sof\libc.a(lib_a-dtoa.o)
 .debug_aranges
                0x0000000000000998       0x20 d:/csgcc/bin/../lib/gcc/mips-sde-elf/4.3.2/../../../../mips-sde-elf/lib/el/sof\libc.a(lib_a-fflush.o)
 .debug_aranges
                0x00000000000009b8       0x20 d:/csgcc/bin/../lib/gcc/mips-sde-elf/4.3.2/../../../../mips-sde-elf/lib/el/sof\libc.a(lib_a-findfp.o)
 .debug_aranges
                0x00000000000009d8       0x20 d:/csgcc/bin/../lib/gcc/mips-sde-elf/4.3.2/../../../../mips-sde-elf/lib/el/sof\libc.a(lib_a-freer.o)
 .debug_aranges
                0x00000000000009f8       0x20 d:/csgcc/bin/../lib/gcc/mips-sde-elf/4.3.2/../../../../mips-sde-elf/lib/el/sof\libc.a(lib_a-fwalk.o)
 .debug_aranges
                0x0000000000000a18       0x20 d:/csgcc/bin/../lib/gcc/mips-sde-elf/4.3.2/../../../../mips-sde-elf/lib/el/sof\libc.a(lib_a-gettzinfo.o)
 .debug_aranges
                0x0000000000000a38       0x20 d:/csgcc/bin/../lib/gcc/mips-sde-elf/4.3.2/../../../../mips-sde-elf/lib/el/sof\libc.a(lib_a-locale.o)
 .debug_aranges
                0x0000000000000a58       0x20 d:/csgcc/bin/../lib/gcc/mips-sde-elf/4.3.2/../../../../mips-sde-elf/lib/el/sof\libc.a(lib_a-makebuf.o)
 .debug_aranges
                0x0000000000000a78       0x20 d:/csgcc/bin/../lib/gcc/mips-sde-elf/4.3.2/../../../../mips-sde-elf/lib/el/sof\libc.a(lib_a-mprec.o)
 .debug_aranges
                0x0000000000000a98       0x20 d:/csgcc/bin/../lib/gcc/mips-sde-elf/4.3.2/../../../../mips-sde-elf/lib/el/sof\libc.a(lib_a-reent.o)
 .debug_aranges
                0x0000000000000ab8       0x20 d:/csgcc/bin/../lib/gcc/mips-sde-elf/4.3.2/../../../../mips-sde-elf/lib/el/sof\libc.a(lib_a-s_isinfd.o)
 .debug_aranges
                0x0000000000000ad8       0x20 d:/csgcc/bin/../lib/gcc/mips-sde-elf/4.3.2/../../../../mips-sde-elf/lib/el/sof\libc.a(lib_a-s_isnand.o)
 .debug_aranges
                0x0000000000000af8       0x20 d:/csgcc/bin/../lib/gcc/mips-sde-elf/4.3.2/../../../../mips-sde-elf/lib/el/sof\libc.a(lib_a-sprintf.o)
 .debug_aranges
                0x0000000000000b18       0x20 d:/csgcc/bin/../lib/gcc/mips-sde-elf/4.3.2/../../../../mips-sde-elf/lib/el/sof\libc.a(lib_a-stdio.o)
 .debug_aranges
                0x0000000000000b38       0x20 d:/csgcc/bin/../lib/gcc/mips-sde-elf/4.3.2/../../../../mips-sde-elf/lib/el/sof\libc.a(lib_a-writer.o)
 .debug_aranges
                0x0000000000000b58       0x20 d:/csgcc/bin/../lib/gcc/mips-sde-elf/4.3.2/../../../../mips-sde-elf/lib/el/sof\libc.a(lib_a-callocr.o)
 .debug_aranges
                0x0000000000000b78       0x20 d:/csgcc/bin/../lib/gcc/mips-sde-elf/4.3.2/../../../../mips-sde-elf/lib/el/sof\libc.a(lib_a-closer.o)
 .debug_aranges
                0x0000000000000b98       0x20 d:/csgcc/bin/../lib/gcc/mips-sde-elf/4.3.2/../../../../mips-sde-elf/lib/el/sof\libc.a(lib_a-fclose.o)
 .debug_aranges
                0x0000000000000bb8       0x20 d:/csgcc/bin/../lib/gcc/mips-sde-elf/4.3.2/../../../../mips-sde-elf/lib/el/sof\libc.a(lib_a-fstatr.o)
 .debug_aranges
                0x0000000000000bd8       0x20 d:/csgcc/bin/../lib/gcc/mips-sde-elf/4.3.2/../../../../mips-sde-elf/lib/el/sof\libc.a(lib_a-isattyr.o)
 .debug_aranges
                0x0000000000000bf8       0x20 d:/csgcc/bin/../lib/gcc/mips-sde-elf/4.3.2/../../../../mips-sde-elf/lib/el/sof\libc.a(lib_a-lseekr.o)
 .debug_aranges
                0x0000000000000c18       0x20 d:/csgcc/bin/../lib/gcc/mips-sde-elf/4.3.2/../../../../mips-sde-elf/lib/el/sof\libc.a(lib_a-readr.o)
 .debug_aranges
                0x0000000000000c38       0x20 d:/csgcc/bin/../lib/gcc/mips-sde-elf/4.3.2/../../../../mips-sde-elf/lib/el/sof\libcs3.a(start_c.o)
 .debug_aranges
                0x0000000000000c58       0x20 d:/csgcc/bin/../lib/gcc/mips-sde-elf/4.3.2/../../../../mips-sde-elf/lib/el/sof\libcs3unhosted.a(unhosted-_exit.o)
 .debug_aranges
                0x0000000000000c78       0x20 d:/csgcc/bin/../lib/gcc/mips-sde-elf/4.3.2/../../../../mips-sde-elf/lib/el/sof\libcs3unhosted.a(unhosted-close.o)
 .debug_aranges
                0x0000000000000c98       0x20 d:/csgcc/bin/../lib/gcc/mips-sde-elf/4.3.2/../../../../mips-sde-elf/lib/el/sof\libcs3unhosted.a(unhosted-fstat.o)
 .debug_aranges
                0x0000000000000cb8       0x20 d:/csgcc/bin/../lib/gcc/mips-sde-elf/4.3.2/../../../../mips-sde-elf/lib/el/sof\libcs3unhosted.a(unhosted-isatty.o)
 .debug_aranges
                0x0000000000000cd8       0x20 d:/csgcc/bin/../lib/gcc/mips-sde-elf/4.3.2/../../../../mips-sde-elf/lib/el/sof\libcs3unhosted.a(unhosted-lseek.o)
 .debug_aranges
                0x0000000000000cf8       0x20 d:/csgcc/bin/../lib/gcc/mips-sde-elf/4.3.2/../../../../mips-sde-elf/lib/el/sof\libcs3unhosted.a(unhosted-open.o)
 .debug_aranges
                0x0000000000000d18       0x20 d:/csgcc/bin/../lib/gcc/mips-sde-elf/4.3.2/../../../../mips-sde-elf/lib/el/sof\libcs3unhosted.a(unhosted-sbrk.o)
 .debug_aranges
                0x0000000000000d38       0x20 d:/csgcc/bin/../lib/gcc/mips-sde-elf/4.3.2/../../../../mips-sde-elf/lib/el/sof\libcs3unhosted.a(unhosted-getpid.o)
 .debug_aranges
                0x0000000000000d58       0x20 d:/csgcc/bin/../lib/gcc/mips-sde-elf/4.3.2/../../../../mips-sde-elf/lib/el/sof\libcs3unhosted.a(unhosted-kill.o)
 .debug_aranges
                0x0000000000000d78       0x20 d:/csgcc/bin/../lib/gcc/mips-sde-elf/4.3.2/../../../../mips-sde-elf/lib/el/sof\libcs3unhosted.a(start.o)
 .debug_aranges
                0x0000000000000d98       0x20 d:/csgcc/bin/../lib/gcc/mips-sde-elf/4.3.2/el/sof\libgcc.a(_udivdi3.o)
 .debug_aranges
                0x0000000000000db8       0x20 d:/csgcc/bin/../lib/gcc/mips-sde-elf/4.3.2/el/sof\libgcc.a(_umoddi3.o)
 .debug_aranges
                0x0000000000000dd8       0x20 d:/csgcc/bin/../lib/gcc/mips-sde-elf/4.3.2/el/sof\libgcc.a(_addsub_df.o)
 .debug_aranges
                0x0000000000000df8       0x20 d:/csgcc/bin/../lib/gcc/mips-sde-elf/4.3.2/el/sof\libgcc.a(_mul_df.o)
 .debug_aranges
                0x0000000000000e18       0x20 d:/csgcc/bin/../lib/gcc/mips-sde-elf/4.3.2/el/sof\libgcc.a(_div_df.o)
 .debug_aranges
                0x0000000000000e38       0x20 d:/csgcc/bin/../lib/gcc/mips-sde-elf/4.3.2/el/sof\libgcc.a(_eq_df.o)
 .debug_aranges
                0x0000000000000e58       0x20 d:/csgcc/bin/../lib/gcc/mips-sde-elf/4.3.2/el/sof\libgcc.a(_ne_df.o)
 .debug_aranges
                0x0000000000000e78       0x20 d:/csgcc/bin/../lib/gcc/mips-sde-elf/4.3.2/el/sof\libgcc.a(_gt_df.o)
 .debug_aranges
                0x0000000000000e98       0x20 d:/csgcc/bin/../lib/gcc/mips-sde-elf/4.3.2/el/sof\libgcc.a(_ge_df.o)
 .debug_aranges
                0x0000000000000eb8       0x20 d:/csgcc/bin/../lib/gcc/mips-sde-elf/4.3.2/el/sof\libgcc.a(_lt_df.o)
 .debug_aranges
                0x0000000000000ed8       0x20 d:/csgcc/bin/../lib/gcc/mips-sde-elf/4.3.2/el/sof\libgcc.a(_si_to_df.o)
 .debug_aranges
                0x0000000000000ef8       0x20 d:/csgcc/bin/../lib/gcc/mips-sde-elf/4.3.2/el/sof\libgcc.a(_df_to_si.o)
 .debug_aranges
                0x0000000000000f18       0x20 d:/csgcc/bin/../lib/gcc/mips-sde-elf/4.3.2/el/sof\libgcc.a(_usi_to_df.o)
 .debug_aranges
                0x0000000000000f38       0x20 d:/csgcc/bin/../lib/gcc/mips-sde-elf/4.3.2/el/sof\libgcc.a(_lshrdi3.o)
 .debug_aranges
                0x0000000000000f58       0x20 d:/csgcc/bin/../lib/gcc/mips-sde-elf/4.3.2/el/sof\libgcc.a(_ashldi3.o)
 .debug_aranges
                0x0000000000000f78       0x20 d:/csgcc/bin/../lib/gcc/mips-sde-elf/4.3.2/el/sof\libgcc.a(_ucmpdi2.o)
 .debug_aranges
                0x0000000000000f98       0x20 d:/csgcc/bin/../lib/gcc/mips-sde-elf/4.3.2/el/sof\libgcc.a(_pack_df.o)
 .debug_aranges
                0x0000000000000fb8       0x20 d:/csgcc/bin/../lib/gcc/mips-sde-elf/4.3.2/el/sof\libgcc.a(_unpack_df.o)
 .debug_aranges
                0x0000000000000fd8       0x20 d:/csgcc/bin/../lib/gcc/mips-sde-elf/4.3.2/el/sof\libgcc.a(_fpcmp_parts_df.o)
 .debug_aranges
                0x0000000000000ff8       0x20 d:/csgcc/bin/../lib/gcc/mips-sde-elf/4.3.2/../../../../mips-sde-elf/lib/el/sof\libc.a(lib_a-errno.o)
 .debug_aranges
                0x0000000000001018       0x20 d:/csgcc/bin/../lib/gcc/mips-sde-elf/4.3.2/../../../../mips-sde-elf/lib/el/sof\libc.a(lib_a-init.o)

.debug_pubnames
                0x0000000000000000     0x1ee8
 *(.debug_pubnames)
 .debug_pubnames
                0x0000000000000000       0x20 obj/pic32mx_cfg_init.o
 .debug_pubnames
                0x0000000000000020       0xac obj/CPP_Demo.o
 .debug_pubnames
                0x00000000000000cc       0xdd obj/DRN_PIC32MX_UART1.o
 .debug_pubnames
                0x00000000000001a9       0x51 obj/DRN_PIC32MX_CS_glue.o
 .debug_pubnames
                0x00000000000001fa       0x57 obj/PIC32MX_time.o
 .debug_pubnames
                0x0000000000000251       0x2a obj/int_enable_interrupts_lib.o
 .debug_pubnames
                0x000000000000027b       0x2b obj/int_disable_interrupts_lib.o
 .debug_pubnames
                0x00000000000002a6       0x2b obj/int_restore_interrupts_lib.o
 .debug_pubnames
                0x00000000000002d1       0x3b obj/pcache.o
 .debug_pubnames
                0x000000000000030c       0x45 d:/csgcc/bin/../lib/gcc/mips-sde-elf/4.3.2/../../../../mips-sde-elf/lib/el/sof\libstdc++.a(eh_personality.o)
 .debug_pubnames
                0x0000000000000351       0x75 d:/csgcc/bin/../lib/gcc/mips-sde-elf/4.3.2/../../../../mips-sde-elf/lib/el/sof\libstdc++.a(eh_terminate.o)
 .debug_pubnames
                0x00000000000003c6       0x34 d:/csgcc/bin/../lib/gcc/mips-sde-elf/4.3.2/../../../../mips-sde-elf/lib/el/sof\libstdc++.a(eh_throw.o)
 .debug_pubnames
                0x00000000000003fa       0x2b d:/csgcc/bin/../lib/gcc/mips-sde-elf/4.3.2/../../../../mips-sde-elf/lib/el/sof\libstdc++.a(eh_unex_handler.o)
 .debug_pubnames
                0x0000000000000425       0x48 d:/csgcc/bin/../lib/gcc/mips-sde-elf/4.3.2/../../../../mips-sde-elf/lib/el/sof\libstdc++.a(eh_alloc.o)
 .debug_pubnames
                0x000000000000046d       0x2b d:/csgcc/bin/../lib/gcc/mips-sde-elf/4.3.2/../../../../mips-sde-elf/lib/el/sof\libstdc++.a(eh_call.o)
 .debug_pubnames
                0x0000000000000498       0x6f d:/csgcc/bin/../lib/gcc/mips-sde-elf/4.3.2/../../../../mips-sde-elf/lib/el/sof\libstdc++.a(eh_catch.o)
 .debug_pubnames
                0x0000000000000507      0x25e d:/csgcc/bin/../lib/gcc/mips-sde-elf/4.3.2/../../../../mips-sde-elf/lib/el/sof\libstdc++.a(eh_exception.o)
 .debug_pubnames
                0x0000000000000765       0x43 d:/csgcc/bin/../lib/gcc/mips-sde-elf/4.3.2/../../../../mips-sde-elf/lib/el/sof\libstdc++.a(eh_globals.o)
 .debug_pubnames
                0x00000000000007a8       0x2a d:/csgcc/bin/../lib/gcc/mips-sde-elf/4.3.2/../../../../mips-sde-elf/lib/el/sof\libstdc++.a(eh_term_handler.o)
 .debug_pubnames
                0x00000000000007d2       0x29 d:/csgcc/bin/../lib/gcc/mips-sde-elf/4.3.2/../../../../mips-sde-elf/lib/el/sof\libstdc++.a(pure.o)
 .debug_pubnames
                0x00000000000007fb      0x166 d:/csgcc/bin/../lib/gcc/mips-sde-elf/4.3.2/../../../../mips-sde-elf/lib/el/sof\libstdc++.a(si_class_type_info.o)
 .debug_pubnames
                0x0000000000000961       0xf5 d:/csgcc/bin/../lib/gcc/mips-sde-elf/4.3.2/../../../../mips-sde-elf/lib/el/sof\libstdc++.a(tinfo.o)
 .debug_pubnames
                0x0000000000000a56       0x32 d:/csgcc/bin/../lib/gcc/mips-sde-elf/4.3.2/../../../../mips-sde-elf/lib/el/sof\libstdc++.a(vterminate.o)
 .debug_pubnames
                0x0000000000000a88       0x47 d:/csgcc/bin/../lib/gcc/mips-sde-elf/4.3.2/../../../../mips-sde-elf/lib/el/sof\libstdc++.a(cp-demangle.o)
 .debug_pubnames
                0x0000000000000acf      0x1a8 d:/csgcc/bin/../lib/gcc/mips-sde-elf/4.3.2/../../../../mips-sde-elf/lib/el/sof\libstdc++.a(class_type_info.o)
 .debug_pubnames
                0x0000000000000c77       0x26 d:/csgcc/bin/../lib/gcc/mips-sde-elf/4.3.2/../../../../mips-sde-elf/lib/el/sof\libstdc++.a(del_op.o)
 .debug_pubnames
                0x0000000000000c9d       0x33 d:/csgcc/bin/../lib/gcc/mips-sde-elf/4.3.2/../../../../mips-sde-elf/lib/el/sof\libstdc++.a(eh_type.o)
 .debug_pubnames
                0x0000000000000cd0      0x1c7 d:/csgcc/bin/../lib/gcc/mips-sde-elf/4.3.2/el/sof\libgcc.a(unwind-dw2.o)
 .debug_pubnames
                0x0000000000000e97      0x12c d:/csgcc/bin/../lib/gcc/mips-sde-elf/4.3.2/el/sof\libgcc.a(unwind-dw2-fde.o)
 .debug_pubnames
                0x0000000000000fc3       0x1c d:/csgcc/bin/../lib/gcc/mips-sde-elf/4.3.2/../../../../mips-sde-elf/lib/el/sof\libc.a(lib_a-abort.o)
 .debug_pubnames
                0x0000000000000fdf       0x1c d:/csgcc/bin/../lib/gcc/mips-sde-elf/4.3.2/../../../../mips-sde-elf/lib/el/sof\libc.a(lib_a-ctime.o)
 .debug_pubnames
                0x0000000000000ffb       0x29 d:/csgcc/bin/../lib/gcc/mips-sde-elf/4.3.2/../../../../mips-sde-elf/lib/el/sof\libc.a(lib_a-fputc.o)
 .debug_pubnames
                0x0000000000001024       0x29 d:/csgcc/bin/../lib/gcc/mips-sde-elf/4.3.2/../../../../mips-sde-elf/lib/el/sof\libc.a(lib_a-fputs.o)
 .debug_pubnames
                0x000000000000104d       0x23 d:/csgcc/bin/../lib/gcc/mips-sde-elf/4.3.2/../../../../mips-sde-elf/lib/el/sof\libc.a(lib_a-fvwrite.o)
 .debug_pubnames
                0x0000000000001070       0x39 d:/csgcc/bin/../lib/gcc/mips-sde-elf/4.3.2/../../../../mips-sde-elf/lib/el/sof\libc.a(lib_a-impure.o)
 .debug_pubnames
                0x00000000000010a9       0x20 d:/csgcc/bin/../lib/gcc/mips-sde-elf/4.3.2/../../../../mips-sde-elf/lib/el/sof\libc.a(lib_a-lcltime.o)
 .debug_pubnames
                0x00000000000010c9       0x22 d:/csgcc/bin/../lib/gcc/mips-sde-elf/4.3.2/../../../../mips-sde-elf/lib/el/sof\libc.a(lib_a-lcltime_r.o)
 .debug_pubnames
                0x00000000000010eb       0x26 d:/csgcc/bin/../lib/gcc/mips-sde-elf/4.3.2/../../../../mips-sde-elf/lib/el/sof\libc.a(lib_a-malloc.o)
 .debug_pubnames
                0x0000000000001111       0xce d:/csgcc/bin/../lib/gcc/mips-sde-elf/4.3.2/../../../../mips-sde-elf/lib/el/sof\libc.a(lib_a-mallocr.o)
 .debug_pubnames
                0x00000000000011df       0x1d d:/csgcc/bin/../lib/gcc/mips-sde-elf/4.3.2/../../../../mips-sde-elf/lib/el/sof\libc.a(lib_a-memchr.o)
 .debug_pubnames
                0x00000000000011fc       0x1d d:/csgcc/bin/../lib/gcc/mips-sde-elf/4.3.2/../../../../mips-sde-elf/lib/el/sof\libc.a(lib_a-memcmp.o)
 .debug_pubnames
                0x0000000000001219       0x1d d:/csgcc/bin/../lib/gcc/mips-sde-elf/4.3.2/../../../../mips-sde-elf/lib/el/sof\libc.a(lib_a-memcpy.o)
 .debug_pubnames
                0x0000000000001236       0x1e d:/csgcc/bin/../lib/gcc/mips-sde-elf/4.3.2/../../../../mips-sde-elf/lib/el/sof\libc.a(lib_a-memmove.o)
 .debug_pubnames
                0x0000000000001254       0x1d d:/csgcc/bin/../lib/gcc/mips-sde-elf/4.3.2/../../../../mips-sde-elf/lib/el/sof\libc.a(lib_a-memset.o)
 .debug_pubnames
                0x0000000000001271       0x32 d:/csgcc/bin/../lib/gcc/mips-sde-elf/4.3.2/../../../../mips-sde-elf/lib/el/sof\libc.a(lib_a-mktm_r.o)
 .debug_pubnames
                0x00000000000012a3       0x38 d:/csgcc/bin/../lib/gcc/mips-sde-elf/4.3.2/../../../../mips-sde-elf/lib/el/sof\libc.a(lib_a-mlock.o)
 .debug_pubnames
                0x00000000000012db       0x2b d:/csgcc/bin/../lib/gcc/mips-sde-elf/4.3.2/../../../../mips-sde-elf/lib/el/sof\libc.a(lib_a-printf.o)
 .debug_pubnames
                0x0000000000001306       0x27 d:/csgcc/bin/../lib/gcc/mips-sde-elf/4.3.2/../../../../mips-sde-elf/lib/el/sof\libc.a(lib_a-putc.o)
 .debug_pubnames
                0x000000000000132d       0x1e d:/csgcc/bin/../lib/gcc/mips-sde-elf/4.3.2/../../../../mips-sde-elf/lib/el/sof\libc.a(lib_a-realloc.o)
 .debug_pubnames
                0x000000000000134b       0x21 d:/csgcc/bin/../lib/gcc/mips-sde-elf/4.3.2/../../../../mips-sde-elf/lib/el/sof\libc.a(lib_a-reallocr.o)
 .debug_pubnames
                0x000000000000136c       0x1e d:/csgcc/bin/../lib/gcc/mips-sde-elf/4.3.2/../../../../mips-sde-elf/lib/el/sof\libc.a(lib_a-sbrkr.o)
 .debug_pubnames
                0x000000000000138a       0x86 d:/csgcc/bin/../lib/gcc/mips-sde-elf/4.3.2/../../../../mips-sde-elf/lib/el/sof\libc.a(lib_a-signal.o)
 .debug_pubnames
                0x0000000000001410       0x2c d:/csgcc/bin/../lib/gcc/mips-sde-elf/4.3.2/../../../../mips-sde-elf/lib/el/sof\libc.a(lib_a-signalr.o)
 .debug_pubnames
                0x000000000000143c       0x1d d:/csgcc/bin/../lib/gcc/mips-sde-elf/4.3.2/../../../../mips-sde-elf/lib/el/sof\libc.a(lib_a-strcmp.o)
 .debug_pubnames
                0x0000000000001459       0x1d d:/csgcc/bin/../lib/gcc/mips-sde-elf/4.3.2/../../../../mips-sde-elf/lib/el/sof\libc.a(lib_a-strcpy.o)
 .debug_pubnames
                0x0000000000001476       0x1e d:/csgcc/bin/../lib/gcc/mips-sde-elf/4.3.2/../../../../mips-sde-elf/lib/el/sof\libc.a(lib_a-strncmp.o)
 .debug_pubnames
                0x0000000000001494       0x3a d:/csgcc/bin/../lib/gcc/mips-sde-elf/4.3.2/../../../../mips-sde-elf/lib/el/sof\libc.a(lib_a-tzvars.o)
 .debug_pubnames
                0x00000000000014ce       0x2f d:/csgcc/bin/../lib/gcc/mips-sde-elf/4.3.2/../../../../mips-sde-elf/lib/el/sof\libc.a(lib_a-vfprintf.o)
 .debug_pubnames
                0x00000000000014fd       0x2c d:/csgcc/bin/../lib/gcc/mips-sde-elf/4.3.2/../../../../mips-sde-elf/lib/el/sof\libc.a(lib_a-wbuf.o)
 .debug_pubnames
                0x0000000000001529       0x22 d:/csgcc/bin/../lib/gcc/mips-sde-elf/4.3.2/../../../../mips-sde-elf/lib/el/sof\libc.a(lib_a-wsetup.o)
 .debug_pubnames
                0x000000000000154b       0x1e d:/csgcc/bin/../lib/gcc/mips-sde-elf/4.3.2/../../../../mips-sde-elf/lib/el/sof\libc.a(lib_a-asctime.o)
 .debug_pubnames
                0x0000000000001569       0x20 d:/csgcc/bin/../lib/gcc/mips-sde-elf/4.3.2/../../../../mips-sde-elf/lib/el/sof\libc.a(lib_a-asctime_r.o)
 .debug_pubnames
                0x0000000000001589       0x1e d:/csgcc/bin/../lib/gcc/mips-sde-elf/4.3.2/../../../../mips-sde-elf/lib/el/sof\libc.a(lib_a-dtoa.o)
 .debug_pubnames
                0x00000000000015a7       0x2b d:/csgcc/bin/../lib/gcc/mips-sde-elf/4.3.2/../../../../mips-sde-elf/lib/el/sof\libc.a(lib_a-fflush.o)
 .debug_pubnames
                0x00000000000015d2       0x55 d:/csgcc/bin/../lib/gcc/mips-sde-elf/4.3.2/../../../../mips-sde-elf/lib/el/sof\libc.a(lib_a-findfp.o)
 .debug_pubnames
                0x0000000000001627       0x31 d:/csgcc/bin/../lib/gcc/mips-sde-elf/4.3.2/../../../../mips-sde-elf/lib/el/sof\libc.a(lib_a-freer.o)
 .debug_pubnames
                0x0000000000001658       0x2e d:/csgcc/bin/../lib/gcc/mips-sde-elf/4.3.2/../../../../mips-sde-elf/lib/el/sof\libc.a(lib_a-fwalk.o)
 .debug_pubnames
                0x0000000000001686       0x22 d:/csgcc/bin/../lib/gcc/mips-sde-elf/4.3.2/../../../../mips-sde-elf/lib/el/sof\libc.a(lib_a-gettzinfo.o)
 .debug_pubnames
                0x00000000000016a8       0xc3 d:/csgcc/bin/../lib/gcc/mips-sde-elf/4.3.2/../../../../mips-sde-elf/lib/el/sof\libc.a(lib_a-locale.o)
 .debug_pubnames
                0x000000000000176b       0x23 d:/csgcc/bin/../lib/gcc/mips-sde-elf/4.3.2/../../../../mips-sde-elf/lib/el/sof\libc.a(lib_a-makebuf.o)
 .debug_pubnames
                0x000000000000178e      0x13a d:/csgcc/bin/../lib/gcc/mips-sde-elf/4.3.2/../../../../mips-sde-elf/lib/el/sof\libc.a(lib_a-mprec.o)
 .debug_pubnames
                0x00000000000018c8       0x52 d:/csgcc/bin/../lib/gcc/mips-sde-elf/4.3.2/../../../../mips-sde-elf/lib/el/sof\libc.a(lib_a-reent.o)
 .debug_pubnames
                0x000000000000191a       0x1f d:/csgcc/bin/../lib/gcc/mips-sde-elf/4.3.2/../../../../mips-sde-elf/lib/el/sof\libc.a(lib_a-s_isinfd.o)
 .debug_pubnames
                0x0000000000001939       0x1f d:/csgcc/bin/../lib/gcc/mips-sde-elf/4.3.2/../../../../mips-sde-elf/lib/el/sof\libc.a(lib_a-s_isnand.o)
 .debug_pubnames
                0x0000000000001958       0x2d d:/csgcc/bin/../lib/gcc/mips-sde-elf/4.3.2/../../../../mips-sde-elf/lib/el/sof\libc.a(lib_a-sprintf.o)
 .debug_pubnames
                0x0000000000001985       0x44 d:/csgcc/bin/../lib/gcc/mips-sde-elf/4.3.2/../../../../mips-sde-elf/lib/el/sof\libc.a(lib_a-stdio.o)
 .debug_pubnames
                0x00000000000019c9       0x1f d:/csgcc/bin/../lib/gcc/mips-sde-elf/4.3.2/../../../../mips-sde-elf/lib/el/sof\libc.a(lib_a-writer.o)
 .debug_pubnames
                0x00000000000019e8       0x20 d:/csgcc/bin/../lib/gcc/mips-sde-elf/4.3.2/../../../../mips-sde-elf/lib/el/sof\libc.a(lib_a-callocr.o)
 .debug_pubnames
                0x0000000000001a08       0x1f d:/csgcc/bin/../lib/gcc/mips-sde-elf/4.3.2/../../../../mips-sde-elf/lib/el/sof\libc.a(lib_a-closer.o)
 .debug_pubnames
                0x0000000000001a27       0x2b d:/csgcc/bin/../lib/gcc/mips-sde-elf/4.3.2/../../../../mips-sde-elf/lib/el/sof\libc.a(lib_a-fclose.o)
 .debug_pubnames
                0x0000000000001a52       0x1f d:/csgcc/bin/../lib/gcc/mips-sde-elf/4.3.2/../../../../mips-sde-elf/lib/el/sof\libc.a(lib_a-fstatr.o)
 .debug_pubnames
                0x0000000000001a71       0x20 d:/csgcc/bin/../lib/gcc/mips-sde-elf/4.3.2/../../../../mips-sde-elf/lib/el/sof\libc.a(lib_a-isattyr.o)
 .debug_pubnames
                0x0000000000001a91       0x1f d:/csgcc/bin/../lib/gcc/mips-sde-elf/4.3.2/../../../../mips-sde-elf/lib/el/sof\libc.a(lib_a-lseekr.o)
 .debug_pubnames
                0x0000000000001ab0       0x1e d:/csgcc/bin/../lib/gcc/mips-sde-elf/4.3.2/../../../../mips-sde-elf/lib/el/sof\libc.a(lib_a-readr.o)
 .debug_pubnames
                0x0000000000001ace       0x24 d:/csgcc/bin/../lib/gcc/mips-sde-elf/4.3.2/../../../../mips-sde-elf/lib/el/sof\libcs3.a(start_c.o)
 .debug_pubnames
                0x0000000000001af2       0x1c d:/csgcc/bin/../lib/gcc/mips-sde-elf/4.3.2/../../../../mips-sde-elf/lib/el/sof\libcs3unhosted.a(unhosted-_exit.o)
 .debug_pubnames
                0x0000000000001b0e       0x1c d:/csgcc/bin/../lib/gcc/mips-sde-elf/4.3.2/../../../../mips-sde-elf/lib/el/sof\libcs3unhosted.a(unhosted-close.o)
 .debug_pubnames
                0x0000000000001b2a       0x1c d:/csgcc/bin/../lib/gcc/mips-sde-elf/4.3.2/../../../../mips-sde-elf/lib/el/sof\libcs3unhosted.a(unhosted-fstat.o)
 .debug_pubnames
                0x0000000000001b46       0x1d d:/csgcc/bin/../lib/gcc/mips-sde-elf/4.3.2/../../../../mips-sde-elf/lib/el/sof\libcs3unhosted.a(unhosted-isatty.o)
 .debug_pubnames
                0x0000000000001b63       0x1c d:/csgcc/bin/../lib/gcc/mips-sde-elf/4.3.2/../../../../mips-sde-elf/lib/el/sof\libcs3unhosted.a(unhosted-lseek.o)
 .debug_pubnames
                0x0000000000001b7f       0x1b d:/csgcc/bin/../lib/gcc/mips-sde-elf/4.3.2/../../../../mips-sde-elf/lib/el/sof\libcs3unhosted.a(unhosted-open.o)
 .debug_pubnames
                0x0000000000001b9a       0x1b d:/csgcc/bin/../lib/gcc/mips-sde-elf/4.3.2/../../../../mips-sde-elf/lib/el/sof\libcs3unhosted.a(unhosted-sbrk.o)
 .debug_pubnames
                0x0000000000001bb5       0x1d d:/csgcc/bin/../lib/gcc/mips-sde-elf/4.3.2/../../../../mips-sde-elf/lib/el/sof\libcs3unhosted.a(unhosted-getpid.o)
 .debug_pubnames
                0x0000000000001bd2       0x1b d:/csgcc/bin/../lib/gcc/mips-sde-elf/4.3.2/../../../../mips-sde-elf/lib/el/sof\libcs3unhosted.a(unhosted-kill.o)
 .debug_pubnames
                0x0000000000001bed       0x20 d:/csgcc/bin/../lib/gcc/mips-sde-elf/4.3.2/el/sof\libgcc.a(_udivdi3.o)
 .debug_pubnames
                0x0000000000001c0d       0x20 d:/csgcc/bin/../lib/gcc/mips-sde-elf/4.3.2/el/sof\libgcc.a(_umoddi3.o)
 .debug_pubnames
                0x0000000000001c2d       0x2c d:/csgcc/bin/../lib/gcc/mips-sde-elf/4.3.2/el/sof\libgcc.a(_addsub_df.o)
 .debug_pubnames
                0x0000000000001c59       0x1f d:/csgcc/bin/../lib/gcc/mips-sde-elf/4.3.2/el/sof\libgcc.a(_mul_df.o)
 .debug_pubnames
                0x0000000000001c78       0x1f d:/csgcc/bin/../lib/gcc/mips-sde-elf/4.3.2/el/sof\libgcc.a(_div_df.o)
 .debug_pubnames
                0x0000000000001c97       0x1e d:/csgcc/bin/../lib/gcc/mips-sde-elf/4.3.2/el/sof\libgcc.a(_eq_df.o)
 .debug_pubnames
                0x0000000000001cb5       0x1e d:/csgcc/bin/../lib/gcc/mips-sde-elf/4.3.2/el/sof\libgcc.a(_ne_df.o)
 .debug_pubnames
                0x0000000000001cd3       0x1e d:/csgcc/bin/../lib/gcc/mips-sde-elf/4.3.2/el/sof\libgcc.a(_gt_df.o)
 .debug_pubnames
                0x0000000000001cf1       0x1e d:/csgcc/bin/../lib/gcc/mips-sde-elf/4.3.2/el/sof\libgcc.a(_ge_df.o)
 .debug_pubnames
                0x0000000000001d0f       0x1e d:/csgcc/bin/../lib/gcc/mips-sde-elf/4.3.2/el/sof\libgcc.a(_lt_df.o)
 .debug_pubnames
                0x0000000000001d2d       0x22 d:/csgcc/bin/../lib/gcc/mips-sde-elf/4.3.2/el/sof\libgcc.a(_si_to_df.o)
 .debug_pubnames
                0x0000000000001d4f       0x20 d:/csgcc/bin/../lib/gcc/mips-sde-elf/4.3.2/el/sof\libgcc.a(_df_to_si.o)
 .debug_pubnames
                0x0000000000001d6f       0x22 d:/csgcc/bin/../lib/gcc/mips-sde-elf/4.3.2/el/sof\libgcc.a(_thenan_df.o)
 .debug_pubnames
                0x0000000000001d91       0x24 d:/csgcc/bin/../lib/gcc/mips-sde-elf/4.3.2/el/sof\libgcc.a(_usi_to_df.o)
 .debug_pubnames
                0x0000000000001db5       0x20 d:/csgcc/bin/../lib/gcc/mips-sde-elf/4.3.2/el/sof\libgcc.a(_lshrdi3.o)
 .debug_pubnames
                0x0000000000001dd5       0x20 d:/csgcc/bin/../lib/gcc/mips-sde-elf/4.3.2/el/sof\libgcc.a(_ashldi3.o)
 .debug_pubnames
                0x0000000000001df5       0x20 d:/csgcc/bin/../lib/gcc/mips-sde-elf/4.3.2/el/sof\libgcc.a(_ucmpdi2.o)
 .debug_pubnames
                0x0000000000001e15       0x1f d:/csgcc/bin/../lib/gcc/mips-sde-elf/4.3.2/el/sof\libgcc.a(_pack_df.o)
 .debug_pubnames
                0x0000000000001e34       0x21 d:/csgcc/bin/../lib/gcc/mips-sde-elf/4.3.2/el/sof\libgcc.a(_unpack_df.o)
 .debug_pubnames
                0x0000000000001e55       0x26 d:/csgcc/bin/../lib/gcc/mips-sde-elf/4.3.2/el/sof\libgcc.a(_fpcmp_parts_df.o)
 .debug_pubnames
                0x0000000000001e7b       0x1e d:/csgcc/bin/../lib/gcc/mips-sde-elf/4.3.2/../../../../mips-sde-elf/lib/el/sof\libc.a(lib_a-errno.o)
 .debug_pubnames
                0x0000000000001e99       0x28 d:/csgcc/bin/../lib/gcc/mips-sde-elf/4.3.2/../../../../mips-sde-elf/lib/el/sof\libc.a(lib_a-init.o)
 .debug_pubnames
                0x0000000000001ec1       0x27 d:/csgcc/bin/../lib/gcc/mips-sde-elf/4.3.2/../../../../mips-sde-elf/lib/el/sof\libcs3.a(heap.o)

.debug_info     0x0000000000000000    0x3174f
 *(.debug_info .gnu.linkonce.wi.*)
 .debug_info    0x0000000000000000       0x9a d:/csgcc/bin/../lib/gcc/mips-sde-elf/4.3.2/el/sof/crti.o
 .debug_info    0x000000000000009a       0x52 obj/pic32mx_cfg_init.o
 .debug_info    0x00000000000000ec       0x5f obj/PIC32MX-reset.o
 .debug_info    0x000000000000014b       0x58 obj/ISRwrapper.o
 .debug_info    0x00000000000001a3      0xd4b obj/CPP_Demo.o
 .debug_info    0x0000000000000eee     0x12af obj/DRN_PIC32MX_UART1.o
 .debug_info    0x000000000000219d      0x987 obj/DRN_PIC32MX_CS_glue.o
 .debug_info    0x0000000000002b24      0xcd7 obj/PIC32MX_time.o
 .debug_info    0x00000000000037fb       0x73 obj/int_enable_interrupts_lib.o
 .debug_info    0x000000000000386e       0x73 obj/int_disable_interrupts_lib.o
 .debug_info    0x00000000000038e1       0x6f obj/int_restore_interrupts_lib.o
 .debug_info    0x0000000000003950       0x7e obj/pcache.o
 .debug_info    0x00000000000039ce     0x1317 d:/csgcc/bin/../lib/gcc/mips-sde-elf/4.3.2/../../../../mips-sde-elf/lib/el/sof\libstdc++.a(eh_personality.o)
 .debug_info    0x0000000000004ce5      0x751 d:/csgcc/bin/../lib/gcc/mips-sde-elf/4.3.2/../../../../mips-sde-elf/lib/el/sof\libstdc++.a(eh_terminate.o)
 .debug_info    0x0000000000005436      0x485 d:/csgcc/bin/../lib/gcc/mips-sde-elf/4.3.2/../../../../mips-sde-elf/lib/el/sof\libstdc++.a(eh_throw.o)
 .debug_info    0x00000000000058bb      0x28e d:/csgcc/bin/../lib/gcc/mips-sde-elf/4.3.2/../../../../mips-sde-elf/lib/el/sof\libstdc++.a(eh_unex_handler.o)
 .debug_info    0x0000000000005b49      0xa86 d:/csgcc/bin/../lib/gcc/mips-sde-elf/4.3.2/../../../../mips-sde-elf/lib/el/sof\libstdc++.a(eh_alloc.o)
 .debug_info    0x00000000000065cf      0x65c d:/csgcc/bin/../lib/gcc/mips-sde-elf/4.3.2/../../../../mips-sde-elf/lib/el/sof\libstdc++.a(eh_call.o)
 .debug_info    0x0000000000006c2b      0x7dd d:/csgcc/bin/../lib/gcc/mips-sde-elf/4.3.2/../../../../mips-sde-elf/lib/el/sof\libstdc++.a(eh_catch.o)
 .debug_info    0x0000000000007408      0x50a d:/csgcc/bin/../lib/gcc/mips-sde-elf/4.3.2/../../../../mips-sde-elf/lib/el/sof\libstdc++.a(eh_exception.o)
 .debug_info    0x0000000000007912      0x654 d:/csgcc/bin/../lib/gcc/mips-sde-elf/4.3.2/../../../../mips-sde-elf/lib/el/sof\libstdc++.a(eh_globals.o)
 .debug_info    0x0000000000007f66      0x28e d:/csgcc/bin/../lib/gcc/mips-sde-elf/4.3.2/../../../../mips-sde-elf/lib/el/sof\libstdc++.a(eh_term_handler.o)
 .debug_info    0x00000000000081f4       0xfc d:/csgcc/bin/../lib/gcc/mips-sde-elf/4.3.2/../../../../mips-sde-elf/lib/el/sof\libstdc++.a(pure.o)
 .debug_info    0x00000000000082f0      0x644 d:/csgcc/bin/../lib/gcc/mips-sde-elf/4.3.2/../../../../mips-sde-elf/lib/el/sof\libstdc++.a(si_class_type_info.o)
 .debug_info    0x0000000000008934      0x438 d:/csgcc/bin/../lib/gcc/mips-sde-elf/4.3.2/../../../../mips-sde-elf/lib/el/sof\libstdc++.a(tinfo.o)
 .debug_info    0x0000000000008d6c     0x112c d:/csgcc/bin/../lib/gcc/mips-sde-elf/4.3.2/../../../../mips-sde-elf/lib/el/sof\libstdc++.a(vterminate.o)
 .debug_info    0x0000000000009e98     0x2fd8 d:/csgcc/bin/../lib/gcc/mips-sde-elf/4.3.2/../../../../mips-sde-elf/lib/el/sof\libstdc++.a(cp-demangle.o)
 .debug_info    0x000000000000ce70      0x737 d:/csgcc/bin/../lib/gcc/mips-sde-elf/4.3.2/../../../../mips-sde-elf/lib/el/sof\libstdc++.a(class_type_info.o)
 .debug_info    0x000000000000d5a7      0x3eb d:/csgcc/bin/../lib/gcc/mips-sde-elf/4.3.2/../../../../mips-sde-elf/lib/el/sof\libstdc++.a(del_op.o)
 .debug_info    0x000000000000d992      0x2ed d:/csgcc/bin/../lib/gcc/mips-sde-elf/4.3.2/../../../../mips-sde-elf/lib/el/sof\libstdc++.a(eh_type.o)
 .debug_info    0x000000000000dc7f     0x2ca9 d:/csgcc/bin/../lib/gcc/mips-sde-elf/4.3.2/el/sof\libgcc.a(unwind-dw2.o)
 .debug_info    0x0000000000010928     0x1a46 d:/csgcc/bin/../lib/gcc/mips-sde-elf/4.3.2/el/sof\libgcc.a(unwind-dw2-fde.o)
 .debug_info    0x000000000001236e       0x9a d:/csgcc/bin/../lib/gcc/mips-sde-elf/4.3.2/el/sof/crtn.o
 .debug_info    0x0000000000012408       0x87 d:/csgcc/bin/../lib/gcc/mips-sde-elf/4.3.2/../../../../mips-sde-elf/lib/el/sof\libc.a(lib_a-abort.o)
 .debug_info    0x000000000001248f       0xbb d:/csgcc/bin/../lib/gcc/mips-sde-elf/4.3.2/../../../../mips-sde-elf/lib/el/sof\libc.a(lib_a-ctime.o)
 .debug_info    0x000000000001254a      0x985 d:/csgcc/bin/../lib/gcc/mips-sde-elf/4.3.2/../../../../mips-sde-elf/lib/el/sof\libc.a(lib_a-fputc.o)
 .debug_info    0x0000000000012ecf      0xa15 d:/csgcc/bin/../lib/gcc/mips-sde-elf/4.3.2/../../../../mips-sde-elf/lib/el/sof\libc.a(lib_a-fputs.o)
 .debug_info    0x00000000000138e4      0xa5d d:/csgcc/bin/../lib/gcc/mips-sde-elf/4.3.2/../../../../mips-sde-elf/lib/el/sof\libc.a(lib_a-fvwrite.o)
 .debug_info    0x0000000000014341      0x912 d:/csgcc/bin/../lib/gcc/mips-sde-elf/4.3.2/../../../../mips-sde-elf/lib/el/sof\libc.a(lib_a-impure.o)
 .debug_info    0x0000000000014c53      0x9d5 d:/csgcc/bin/../lib/gcc/mips-sde-elf/4.3.2/../../../../mips-sde-elf/lib/el/sof\libc.a(lib_a-lcltime.o)
 .debug_info    0x0000000000015628      0x170 d:/csgcc/bin/../lib/gcc/mips-sde-elf/4.3.2/../../../../mips-sde-elf/lib/el/sof\libc.a(lib_a-lcltime_r.o)
 .debug_info    0x0000000000015798      0x947 d:/csgcc/bin/../lib/gcc/mips-sde-elf/4.3.2/../../../../mips-sde-elf/lib/el/sof\libc.a(lib_a-malloc.o)
 .debug_info    0x00000000000160df      0xca9 d:/csgcc/bin/../lib/gcc/mips-sde-elf/4.3.2/../../../../mips-sde-elf/lib/el/sof\libc.a(lib_a-mallocr.o)
 .debug_info    0x0000000000016d88       0xe1 d:/csgcc/bin/../lib/gcc/mips-sde-elf/4.3.2/../../../../mips-sde-elf/lib/el/sof\libc.a(lib_a-memchr.o)
 .debug_info    0x0000000000016e69       0xdd d:/csgcc/bin/../lib/gcc/mips-sde-elf/4.3.2/../../../../mips-sde-elf/lib/el/sof\libc.a(lib_a-memcmp.o)
 .debug_info    0x0000000000016f46       0xbc d:/csgcc/bin/../lib/gcc/mips-sde-elf/4.3.2/../../../../mips-sde-elf/lib/el/sof\libc.a(lib_a-memcpy.o)
 .debug_info    0x0000000000017002       0xf8 d:/csgcc/bin/../lib/gcc/mips-sde-elf/4.3.2/../../../../mips-sde-elf/lib/el/sof\libc.a(lib_a-memmove.o)
 .debug_info    0x00000000000170fa       0xc9 d:/csgcc/bin/../lib/gcc/mips-sde-elf/4.3.2/../../../../mips-sde-elf/lib/el/sof\libc.a(lib_a-memset.o)
 .debug_info    0x00000000000171c3      0x419 d:/csgcc/bin/../lib/gcc/mips-sde-elf/4.3.2/../../../../mips-sde-elf/lib/el/sof\libc.a(lib_a-mktm_r.o)
 .debug_info    0x00000000000175dc      0x91c d:/csgcc/bin/../lib/gcc/mips-sde-elf/4.3.2/../../../../mips-sde-elf/lib/el/sof\libc.a(lib_a-mlock.o)
 .debug_info    0x0000000000017ef8      0x9ac d:/csgcc/bin/../lib/gcc/mips-sde-elf/4.3.2/../../../../mips-sde-elf/lib/el/sof\libc.a(lib_a-printf.o)
 .debug_info    0x00000000000188a4      0x985 d:/csgcc/bin/../lib/gcc/mips-sde-elf/4.3.2/../../../../mips-sde-elf/lib/el/sof\libc.a(lib_a-putc.o)
 .debug_info    0x0000000000019229      0x92c d:/csgcc/bin/../lib/gcc/mips-sde-elf/4.3.2/../../../../mips-sde-elf/lib/el/sof\libc.a(lib_a-realloc.o)
 .debug_info    0x0000000000019b55      0xbb6 d:/csgcc/bin/../lib/gcc/mips-sde-elf/4.3.2/../../../../mips-sde-elf/lib/el/sof\libc.a(lib_a-reallocr.o)
 .debug_info    0x000000000001a70b      0x939 d:/csgcc/bin/../lib/gcc/mips-sde-elf/4.3.2/../../../../mips-sde-elf/lib/el/sof\libc.a(lib_a-sbrkr.o)
 .debug_info    0x000000000001b044      0xabe d:/csgcc/bin/../lib/gcc/mips-sde-elf/4.3.2/../../../../mips-sde-elf/lib/el/sof\libc.a(lib_a-signal.o)
 .debug_info    0x000000000001bb02      0x975 d:/csgcc/bin/../lib/gcc/mips-sde-elf/4.3.2/../../../../mips-sde-elf/lib/el/sof\libc.a(lib_a-signalr.o)
 .debug_info    0x000000000001c477      0x11d d:/csgcc/bin/../lib/gcc/mips-sde-elf/4.3.2/../../../../mips-sde-elf/lib/el/sof\libc.a(lib_a-strcmp.o)
 .debug_info    0x000000000001c594       0xc0 d:/csgcc/bin/../lib/gcc/mips-sde-elf/4.3.2/../../../../mips-sde-elf/lib/el/sof\libc.a(lib_a-strcpy.o)
 .debug_info    0x000000000001c654       0x72 d:/csgcc/bin/../lib/gcc/mips-sde-elf/4.3.2/../../../../mips-sde-elf/lib/el/sof\libc.a(lib_a-strlen.o)
 .debug_info    0x000000000001c6c6       0xc3 d:/csgcc/bin/../lib/gcc/mips-sde-elf/4.3.2/../../../../mips-sde-elf/lib/el/sof\libc.a(lib_a-strncmp.o)
 .debug_info    0x000000000001c789       0xbe d:/csgcc/bin/../lib/gcc/mips-sde-elf/4.3.2/../../../../mips-sde-elf/lib/el/sof\libc.a(lib_a-tzvars.o)
 .debug_info    0x000000000001c847     0x10a7 d:/csgcc/bin/../lib/gcc/mips-sde-elf/4.3.2/../../../../mips-sde-elf/lib/el/sof\libc.a(lib_a-vfprintf.o)
 .debug_info    0x000000000001d8ee      0x983 d:/csgcc/bin/../lib/gcc/mips-sde-elf/4.3.2/../../../../mips-sde-elf/lib/el/sof\libc.a(lib_a-wbuf.o)
 .debug_info    0x000000000001e271      0x932 d:/csgcc/bin/../lib/gcc/mips-sde-elf/4.3.2/../../../../mips-sde-elf/lib/el/sof\libc.a(lib_a-wsetup.o)
 .debug_info    0x000000000001eba3      0x9c7 d:/csgcc/bin/../lib/gcc/mips-sde-elf/4.3.2/../../../../mips-sde-elf/lib/el/sof\libc.a(lib_a-asctime.o)
 .debug_info    0x000000000001f56a      0x1c0 d:/csgcc/bin/../lib/gcc/mips-sde-elf/4.3.2/../../../../mips-sde-elf/lib/el/sof\libc.a(lib_a-asctime_r.o)
 .debug_info    0x000000000001f72a      0xd41 d:/csgcc/bin/../lib/gcc/mips-sde-elf/4.3.2/../../../../mips-sde-elf/lib/el/sof\libc.a(lib_a-dtoa.o)
 .debug_info    0x000000000002046b      0x9d5 d:/csgcc/bin/../lib/gcc/mips-sde-elf/4.3.2/../../../../mips-sde-elf/lib/el/sof\libc.a(lib_a-fflush.o)
 .debug_info    0x0000000000020e40      0xad7 d:/csgcc/bin/../lib/gcc/mips-sde-elf/4.3.2/../../../../mips-sde-elf/lib/el/sof\libc.a(lib_a-findfp.o)
 .debug_info    0x0000000000021917      0xb9e d:/csgcc/bin/../lib/gcc/mips-sde-elf/4.3.2/../../../../mips-sde-elf/lib/el/sof\libc.a(lib_a-freer.o)
 .debug_info    0x00000000000224b5      0xaca d:/csgcc/bin/../lib/gcc/mips-sde-elf/4.3.2/../../../../mips-sde-elf/lib/el/sof\libc.a(lib_a-fwalk.o)
 .debug_info    0x0000000000022f7f      0x16e d:/csgcc/bin/../lib/gcc/mips-sde-elf/4.3.2/../../../../mips-sde-elf/lib/el/sof\libc.a(lib_a-gettzinfo.o)
 .debug_info    0x00000000000230ed      0xb80 d:/csgcc/bin/../lib/gcc/mips-sde-elf/4.3.2/../../../../mips-sde-elf/lib/el/sof\libc.a(lib_a-locale.o)
 .debug_info    0x0000000000023c6d      0xaf3 d:/csgcc/bin/../lib/gcc/mips-sde-elf/4.3.2/../../../../mips-sde-elf/lib/el/sof\libc.a(lib_a-makebuf.o)
 .debug_info    0x0000000000024760     0x14c9 d:/csgcc/bin/../lib/gcc/mips-sde-elf/4.3.2/../../../../mips-sde-elf/lib/el/sof\libc.a(lib_a-mprec.o)
 .debug_info    0x0000000000025c29      0x9f7 d:/csgcc/bin/../lib/gcc/mips-sde-elf/4.3.2/../../../../mips-sde-elf/lib/el/sof\libc.a(lib_a-reent.o)
 .debug_info    0x0000000000026620       0xd0 d:/csgcc/bin/../lib/gcc/mips-sde-elf/4.3.2/../../../../mips-sde-elf/lib/el/sof\libc.a(lib_a-s_isinfd.o)
 .debug_info    0x00000000000266f0       0xce d:/csgcc/bin/../lib/gcc/mips-sde-elf/4.3.2/../../../../mips-sde-elf/lib/el/sof\libc.a(lib_a-s_isnand.o)
 .debug_info    0x00000000000267be      0x9ed d:/csgcc/bin/../lib/gcc/mips-sde-elf/4.3.2/../../../../mips-sde-elf/lib/el/sof\libc.a(lib_a-sprintf.o)
 .debug_info    0x00000000000271ab      0xa83 d:/csgcc/bin/../lib/gcc/mips-sde-elf/4.3.2/../../../../mips-sde-elf/lib/el/sof\libc.a(lib_a-stdio.o)
 .debug_info    0x0000000000027c2e      0x968 d:/csgcc/bin/../lib/gcc/mips-sde-elf/4.3.2/../../../../mips-sde-elf/lib/el/sof\libc.a(lib_a-writer.o)
 .debug_info    0x0000000000028596      0x9f4 d:/csgcc/bin/../lib/gcc/mips-sde-elf/4.3.2/../../../../mips-sde-elf/lib/el/sof\libc.a(lib_a-callocr.o)
 .debug_info    0x0000000000028f8a      0x92d d:/csgcc/bin/../lib/gcc/mips-sde-elf/4.3.2/../../../../mips-sde-elf/lib/el/sof\libc.a(lib_a-closer.o)
 .debug_info    0x00000000000298b7      0x969 d:/csgcc/bin/../lib/gcc/mips-sde-elf/4.3.2/../../../../mips-sde-elf/lib/el/sof\libc.a(lib_a-fclose.o)
 .debug_info    0x000000000002a220      0xad1 d:/csgcc/bin/../lib/gcc/mips-sde-elf/4.3.2/../../../../mips-sde-elf/lib/el/sof\libc.a(lib_a-fstatr.o)
 .debug_info    0x000000000002acf1      0x92d d:/csgcc/bin/../lib/gcc/mips-sde-elf/4.3.2/../../../../mips-sde-elf/lib/el/sof\libc.a(lib_a-isattyr.o)
 .debug_info    0x000000000002b61e      0x956 d:/csgcc/bin/../lib/gcc/mips-sde-elf/4.3.2/../../../../mips-sde-elf/lib/el/sof\libc.a(lib_a-lseekr.o)
 .debug_info    0x000000000002bf74      0x961 d:/csgcc/bin/../lib/gcc/mips-sde-elf/4.3.2/../../../../mips-sde-elf/lib/el/sof\libc.a(lib_a-readr.o)
 .debug_info    0x000000000002c8d5      0x1cf d:/csgcc/bin/../lib/gcc/mips-sde-elf/4.3.2/../../../../mips-sde-elf/lib/el/sof\libcs3.a(start_c.o)
 .debug_info    0x000000000002caa4       0x4e d:/csgcc/bin/../lib/gcc/mips-sde-elf/4.3.2/../../../../mips-sde-elf/lib/el/sof\libcs3unhosted.a(unhosted-_exit.o)
 .debug_info    0x000000000002caf2       0xc4 d:/csgcc/bin/../lib/gcc/mips-sde-elf/4.3.2/../../../../mips-sde-elf/lib/el/sof\libcs3unhosted.a(unhosted-close.o)
 .debug_info    0x000000000002cbb6      0x268 d:/csgcc/bin/../lib/gcc/mips-sde-elf/4.3.2/../../../../mips-sde-elf/lib/el/sof\libcs3unhosted.a(unhosted-fstat.o)
 .debug_info    0x000000000002ce1e       0xc4 d:/csgcc/bin/../lib/gcc/mips-sde-elf/4.3.2/../../../../mips-sde-elf/lib/el/sof\libcs3unhosted.a(unhosted-isatty.o)
 .debug_info    0x000000000002cee2       0xf8 d:/csgcc/bin/../lib/gcc/mips-sde-elf/4.3.2/../../../../mips-sde-elf/lib/el/sof\libcs3unhosted.a(unhosted-lseek.o)
 .debug_info    0x000000000002cfda       0xe0 d:/csgcc/bin/../lib/gcc/mips-sde-elf/4.3.2/../../../../mips-sde-elf/lib/el/sof\libcs3unhosted.a(unhosted-open.o)
 .debug_info    0x000000000002d0ba      0x12f d:/csgcc/bin/../lib/gcc/mips-sde-elf/4.3.2/../../../../mips-sde-elf/lib/el/sof\libcs3unhosted.a(unhosted-sbrk.o)
 .debug_info    0x000000000002d1e9       0x40 d:/csgcc/bin/../lib/gcc/mips-sde-elf/4.3.2/../../../../mips-sde-elf/lib/el/sof\libcs3unhosted.a(unhosted-getpid.o)
 .debug_info    0x000000000002d229       0x65 d:/csgcc/bin/../lib/gcc/mips-sde-elf/4.3.2/../../../../mips-sde-elf/lib/el/sof\libcs3unhosted.a(unhosted-kill.o)
 .debug_info    0x000000000002d28e       0x7f d:/csgcc/bin/../lib/gcc/mips-sde-elf/4.3.2/../../../../mips-sde-elf/lib/el/sof\libcs3unhosted.a(start.o)
 .debug_info    0x000000000002d30d      0x592 d:/csgcc/bin/../lib/gcc/mips-sde-elf/4.3.2/el/sof\libgcc.a(_udivdi3.o)
 .debug_info    0x000000000002d89f      0x5b1 d:/csgcc/bin/../lib/gcc/mips-sde-elf/4.3.2/el/sof\libgcc.a(_umoddi3.o)
 .debug_info    0x000000000002de50      0x48b d:/csgcc/bin/../lib/gcc/mips-sde-elf/4.3.2/el/sof\libgcc.a(_addsub_df.o)
 .debug_info    0x000000000002e2db      0x4de d:/csgcc/bin/../lib/gcc/mips-sde-elf/4.3.2/el/sof\libgcc.a(_mul_df.o)
 .debug_info    0x000000000002e7b9      0x3eb d:/csgcc/bin/../lib/gcc/mips-sde-elf/4.3.2/el/sof\libgcc.a(_div_df.o)
 .debug_info    0x000000000002eba4      0x29a d:/csgcc/bin/../lib/gcc/mips-sde-elf/4.3.2/el/sof\libgcc.a(_eq_df.o)
 .debug_info    0x000000000002ee3e      0x29a d:/csgcc/bin/../lib/gcc/mips-sde-elf/4.3.2/el/sof\libgcc.a(_ne_df.o)
 .debug_info    0x000000000002f0d8      0x29a d:/csgcc/bin/../lib/gcc/mips-sde-elf/4.3.2/el/sof\libgcc.a(_gt_df.o)
 .debug_info    0x000000000002f372      0x29a d:/csgcc/bin/../lib/gcc/mips-sde-elf/4.3.2/el/sof\libgcc.a(_ge_df.o)
 .debug_info    0x000000000002f60c      0x29a d:/csgcc/bin/../lib/gcc/mips-sde-elf/4.3.2/el/sof\libgcc.a(_lt_df.o)
 .debug_info    0x000000000002f8a6      0x214 d:/csgcc/bin/../lib/gcc/mips-sde-elf/4.3.2/el/sof\libgcc.a(_si_to_df.o)
 .debug_info    0x000000000002faba      0x2c9 d:/csgcc/bin/../lib/gcc/mips-sde-elf/4.3.2/el/sof\libgcc.a(_df_to_si.o)
 .debug_info    0x000000000002fd83      0x160 d:/csgcc/bin/../lib/gcc/mips-sde-elf/4.3.2/el/sof\libgcc.a(_thenan_df.o)
 .debug_info    0x000000000002fee3      0x213 d:/csgcc/bin/../lib/gcc/mips-sde-elf/4.3.2/el/sof\libgcc.a(_usi_to_df.o)
 .debug_info    0x00000000000300f6      0x1a0 d:/csgcc/bin/../lib/gcc/mips-sde-elf/4.3.2/el/sof\libgcc.a(_lshrdi3.o)
 .debug_info    0x0000000000030296      0x19d d:/csgcc/bin/../lib/gcc/mips-sde-elf/4.3.2/el/sof\libgcc.a(_ashldi3.o)
 .debug_info    0x0000000000030433      0x15e d:/csgcc/bin/../lib/gcc/mips-sde-elf/4.3.2/el/sof\libgcc.a(_ucmpdi2.o)
 .debug_info    0x0000000000030591      0x2f8 d:/csgcc/bin/../lib/gcc/mips-sde-elf/4.3.2/el/sof\libgcc.a(_pack_df.o)
 .debug_info    0x0000000000030889      0x266 d:/csgcc/bin/../lib/gcc/mips-sde-elf/4.3.2/el/sof\libgcc.a(_unpack_df.o)
 .debug_info    0x0000000000030aef      0x219 d:/csgcc/bin/../lib/gcc/mips-sde-elf/4.3.2/el/sof\libgcc.a(_fpcmp_parts_df.o)
 .debug_info    0x0000000000030d08      0x903 d:/csgcc/bin/../lib/gcc/mips-sde-elf/4.3.2/../../../../mips-sde-elf/lib/el/sof\libc.a(lib_a-errno.o)
 .debug_info    0x000000000003160b       0xfa d:/csgcc/bin/../lib/gcc/mips-sde-elf/4.3.2/../../../../mips-sde-elf/lib/el/sof\libc.a(lib_a-init.o)
 .debug_info    0x0000000000031705       0x4a d:/csgcc/bin/../lib/gcc/mips-sde-elf/4.3.2/../../../../mips-sde-elf/lib/el/sof\libcs3.a(heap.o)

.debug_abbrev   0x0000000000000000     0xac3f
 *(.debug_abbrev)
 .debug_abbrev  0x0000000000000000       0x12 d:/csgcc/bin/../lib/gcc/mips-sde-elf/4.3.2/el/sof/crti.o
 .debug_abbrev  0x0000000000000012       0x4b obj/pic32mx_cfg_init.o
 .debug_abbrev  0x000000000000005d       0x14 obj/PIC32MX-reset.o
 .debug_abbrev  0x0000000000000071       0x12 obj/ISRwrapper.o
 .debug_abbrev  0x0000000000000083      0x35b obj/CPP_Demo.o
 .debug_abbrev  0x00000000000003de      0x1f7 obj/DRN_PIC32MX_UART1.o
 .debug_abbrev  0x00000000000005d5      0x1c7 obj/DRN_PIC32MX_CS_glue.o
 .debug_abbrev  0x000000000000079c      0x1b2 obj/PIC32MX_time.o
 .debug_abbrev  0x000000000000094e       0x5f obj/int_enable_interrupts_lib.o
 .debug_abbrev  0x00000000000009ad       0x5f obj/int_disable_interrupts_lib.o
 .debug_abbrev  0x0000000000000a0c       0x5d obj/int_restore_interrupts_lib.o
 .debug_abbrev  0x0000000000000a69       0x56 obj/pcache.o
 .debug_abbrev  0x0000000000000abf      0x488 d:/csgcc/bin/../lib/gcc/mips-sde-elf/4.3.2/../../../../mips-sde-elf/lib/el/sof\libstdc++.a(eh_personality.o)
 .debug_abbrev  0x0000000000000f47      0x21a d:/csgcc/bin/../lib/gcc/mips-sde-elf/4.3.2/../../../../mips-sde-elf/lib/el/sof\libstdc++.a(eh_terminate.o)
 .debug_abbrev  0x0000000000001161      0x1cf d:/csgcc/bin/../lib/gcc/mips-sde-elf/4.3.2/../../../../mips-sde-elf/lib/el/sof\libstdc++.a(eh_throw.o)
 .debug_abbrev  0x0000000000001330      0x11d d:/csgcc/bin/../lib/gcc/mips-sde-elf/4.3.2/../../../../mips-sde-elf/lib/el/sof\libstdc++.a(eh_unex_handler.o)
 .debug_abbrev  0x000000000000144d      0x32e d:/csgcc/bin/../lib/gcc/mips-sde-elf/4.3.2/../../../../mips-sde-elf/lib/el/sof\libstdc++.a(eh_alloc.o)
 .debug_abbrev  0x000000000000177b      0x1d5 d:/csgcc/bin/../lib/gcc/mips-sde-elf/4.3.2/../../../../mips-sde-elf/lib/el/sof\libstdc++.a(eh_call.o)
 .debug_abbrev  0x0000000000001950      0x24d d:/csgcc/bin/../lib/gcc/mips-sde-elf/4.3.2/../../../../mips-sde-elf/lib/el/sof\libstdc++.a(eh_catch.o)
 .debug_abbrev  0x0000000000001b9d      0x204 d:/csgcc/bin/../lib/gcc/mips-sde-elf/4.3.2/../../../../mips-sde-elf/lib/el/sof\libstdc++.a(eh_exception.o)
 .debug_abbrev  0x0000000000001da1      0x19b d:/csgcc/bin/../lib/gcc/mips-sde-elf/4.3.2/../../../../mips-sde-elf/lib/el/sof\libstdc++.a(eh_globals.o)
 .debug_abbrev  0x0000000000001f3c      0x11d d:/csgcc/bin/../lib/gcc/mips-sde-elf/4.3.2/../../../../mips-sde-elf/lib/el/sof\libstdc++.a(eh_term_handler.o)
 .debug_abbrev  0x0000000000002059       0xb1 d:/csgcc/bin/../lib/gcc/mips-sde-elf/4.3.2/../../../../mips-sde-elf/lib/el/sof\libstdc++.a(pure.o)
 .debug_abbrev  0x000000000000210a      0x2ec d:/csgcc/bin/../lib/gcc/mips-sde-elf/4.3.2/../../../../mips-sde-elf/lib/el/sof\libstdc++.a(si_class_type_info.o)
 .debug_abbrev  0x00000000000023f6      0x227 d:/csgcc/bin/../lib/gcc/mips-sde-elf/4.3.2/../../../../mips-sde-elf/lib/el/sof\libstdc++.a(tinfo.o)
 .debug_abbrev  0x000000000000261d      0x2d6 d:/csgcc/bin/../lib/gcc/mips-sde-elf/4.3.2/../../../../mips-sde-elf/lib/el/sof\libstdc++.a(vterminate.o)
 .debug_abbrev  0x00000000000028f3      0x2ff d:/csgcc/bin/../lib/gcc/mips-sde-elf/4.3.2/../../../../mips-sde-elf/lib/el/sof\libstdc++.a(cp-demangle.o)
 .debug_abbrev  0x0000000000002bf2      0x342 d:/csgcc/bin/../lib/gcc/mips-sde-elf/4.3.2/../../../../mips-sde-elf/lib/el/sof\libstdc++.a(class_type_info.o)
 .debug_abbrev  0x0000000000002f34      0x125 d:/csgcc/bin/../lib/gcc/mips-sde-elf/4.3.2/../../../../mips-sde-elf/lib/el/sof\libstdc++.a(del_op.o)
 .debug_abbrev  0x0000000000003059      0x140 d:/csgcc/bin/../lib/gcc/mips-sde-elf/4.3.2/../../../../mips-sde-elf/lib/el/sof\libstdc++.a(eh_type.o)
 .debug_abbrev  0x0000000000003199      0x54e d:/csgcc/bin/../lib/gcc/mips-sde-elf/4.3.2/el/sof\libgcc.a(unwind-dw2.o)
 .debug_abbrev  0x00000000000036e7      0x44a d:/csgcc/bin/../lib/gcc/mips-sde-elf/4.3.2/el/sof\libgcc.a(unwind-dw2-fde.o)
 .debug_abbrev  0x0000000000003b31       0x12 d:/csgcc/bin/../lib/gcc/mips-sde-elf/4.3.2/el/sof/crtn.o
 .debug_abbrev  0x0000000000003b43       0x46 d:/csgcc/bin/../lib/gcc/mips-sde-elf/4.3.2/../../../../mips-sde-elf/lib/el/sof\libc.a(lib_a-abort.o)
 .debug_abbrev  0x0000000000003b89       0x76 d:/csgcc/bin/../lib/gcc/mips-sde-elf/4.3.2/../../../../mips-sde-elf/lib/el/sof\libc.a(lib_a-ctime.o)
 .debug_abbrev  0x0000000000003bff      0x1ac d:/csgcc/bin/../lib/gcc/mips-sde-elf/4.3.2/../../../../mips-sde-elf/lib/el/sof\libc.a(lib_a-fputc.o)
 .debug_abbrev  0x0000000000003dab      0x1b1 d:/csgcc/bin/../lib/gcc/mips-sde-elf/4.3.2/../../../../mips-sde-elf/lib/el/sof\libc.a(lib_a-fputs.o)
 .debug_abbrev  0x0000000000003f5c      0x1ac d:/csgcc/bin/../lib/gcc/mips-sde-elf/4.3.2/../../../../mips-sde-elf/lib/el/sof\libc.a(lib_a-fvwrite.o)
 .debug_abbrev  0x0000000000004108      0x15e d:/csgcc/bin/../lib/gcc/mips-sde-elf/4.3.2/../../../../mips-sde-elf/lib/el/sof\libc.a(lib_a-impure.o)
 .debug_abbrev  0x0000000000004266      0x186 d:/csgcc/bin/../lib/gcc/mips-sde-elf/4.3.2/../../../../mips-sde-elf/lib/el/sof\libc.a(lib_a-lcltime.o)
 .debug_abbrev  0x00000000000043ec       0xa3 d:/csgcc/bin/../lib/gcc/mips-sde-elf/4.3.2/../../../../mips-sde-elf/lib/el/sof\libc.a(lib_a-lcltime_r.o)
 .debug_abbrev  0x000000000000448f      0x18e d:/csgcc/bin/../lib/gcc/mips-sde-elf/4.3.2/../../../../mips-sde-elf/lib/el/sof\libc.a(lib_a-malloc.o)
 .debug_abbrev  0x000000000000461d      0x21f d:/csgcc/bin/../lib/gcc/mips-sde-elf/4.3.2/../../../../mips-sde-elf/lib/el/sof\libc.a(lib_a-mallocr.o)
 .debug_abbrev  0x000000000000483c       0xaf d:/csgcc/bin/../lib/gcc/mips-sde-elf/4.3.2/../../../../mips-sde-elf/lib/el/sof\libc.a(lib_a-memchr.o)
 .debug_abbrev  0x00000000000048eb       0x81 d:/csgcc/bin/../lib/gcc/mips-sde-elf/4.3.2/../../../../mips-sde-elf/lib/el/sof\libc.a(lib_a-memcmp.o)
 .debug_abbrev  0x000000000000496c       0x8c d:/csgcc/bin/../lib/gcc/mips-sde-elf/4.3.2/../../../../mips-sde-elf/lib/el/sof\libc.a(lib_a-memcpy.o)
 .debug_abbrev  0x00000000000049f8       0x91 d:/csgcc/bin/../lib/gcc/mips-sde-elf/4.3.2/../../../../mips-sde-elf/lib/el/sof\libc.a(lib_a-memmove.o)
 .debug_abbrev  0x0000000000004a89       0x83 d:/csgcc/bin/../lib/gcc/mips-sde-elf/4.3.2/../../../../mips-sde-elf/lib/el/sof\libc.a(lib_a-memset.o)
 .debug_abbrev  0x0000000000004b0c      0x13d d:/csgcc/bin/../lib/gcc/mips-sde-elf/4.3.2/../../../../mips-sde-elf/lib/el/sof\libc.a(lib_a-mktm_r.o)
 .debug_abbrev  0x0000000000004c49      0x175 d:/csgcc/bin/../lib/gcc/mips-sde-elf/4.3.2/../../../../mips-sde-elf/lib/el/sof\libc.a(lib_a-mlock.o)
 .debug_abbrev  0x0000000000004dbe      0x1b0 d:/csgcc/bin/../lib/gcc/mips-sde-elf/4.3.2/../../../../mips-sde-elf/lib/el/sof\libc.a(lib_a-printf.o)
 .debug_abbrev  0x0000000000004f6e      0x19f d:/csgcc/bin/../lib/gcc/mips-sde-elf/4.3.2/../../../../mips-sde-elf/lib/el/sof\libc.a(lib_a-putc.o)
 .debug_abbrev  0x000000000000510d      0x186 d:/csgcc/bin/../lib/gcc/mips-sde-elf/4.3.2/../../../../mips-sde-elf/lib/el/sof\libc.a(lib_a-realloc.o)
 .debug_abbrev  0x0000000000005293      0x1db d:/csgcc/bin/../lib/gcc/mips-sde-elf/4.3.2/../../../../mips-sde-elf/lib/el/sof\libc.a(lib_a-reallocr.o)
 .debug_abbrev  0x000000000000546e      0x195 d:/csgcc/bin/../lib/gcc/mips-sde-elf/4.3.2/../../../../mips-sde-elf/lib/el/sof\libc.a(lib_a-sbrkr.o)
 .debug_abbrev  0x0000000000005603      0x1d2 d:/csgcc/bin/../lib/gcc/mips-sde-elf/4.3.2/../../../../mips-sde-elf/lib/el/sof\libc.a(lib_a-signal.o)
 .debug_abbrev  0x00000000000057d5      0x193 d:/csgcc/bin/../lib/gcc/mips-sde-elf/4.3.2/../../../../mips-sde-elf/lib/el/sof\libc.a(lib_a-signalr.o)
 .debug_abbrev  0x0000000000005968       0xa1 d:/csgcc/bin/../lib/gcc/mips-sde-elf/4.3.2/../../../../mips-sde-elf/lib/el/sof\libc.a(lib_a-strcmp.o)
 .debug_abbrev  0x0000000000005a09       0x83 d:/csgcc/bin/../lib/gcc/mips-sde-elf/4.3.2/../../../../mips-sde-elf/lib/el/sof\libc.a(lib_a-strcpy.o)
 .debug_abbrev  0x0000000000005a8c       0x31 d:/csgcc/bin/../lib/gcc/mips-sde-elf/4.3.2/../../../../mips-sde-elf/lib/el/sof\libc.a(lib_a-strlen.o)
 .debug_abbrev  0x0000000000005abd       0x74 d:/csgcc/bin/../lib/gcc/mips-sde-elf/4.3.2/../../../../mips-sde-elf/lib/el/sof\libc.a(lib_a-strncmp.o)
 .debug_abbrev  0x0000000000005b31       0x5d d:/csgcc/bin/../lib/gcc/mips-sde-elf/4.3.2/../../../../mips-sde-elf/lib/el/sof\libc.a(lib_a-tzvars.o)
 .debug_abbrev  0x0000000000005b8e      0x387 d:/csgcc/bin/../lib/gcc/mips-sde-elf/4.3.2/../../../../mips-sde-elf/lib/el/sof\libc.a(lib_a-vfprintf.o)
 .debug_abbrev  0x0000000000005f15      0x19f d:/csgcc/bin/../lib/gcc/mips-sde-elf/4.3.2/../../../../mips-sde-elf/lib/el/sof\libc.a(lib_a-wbuf.o)
 .debug_abbrev  0x00000000000060b4      0x177 d:/csgcc/bin/../lib/gcc/mips-sde-elf/4.3.2/../../../../mips-sde-elf/lib/el/sof\libc.a(lib_a-wsetup.o)
 .debug_abbrev  0x000000000000622b      0x18f d:/csgcc/bin/../lib/gcc/mips-sde-elf/4.3.2/../../../../mips-sde-elf/lib/el/sof\libc.a(lib_a-asctime.o)
 .debug_abbrev  0x00000000000063ba       0xb1 d:/csgcc/bin/../lib/gcc/mips-sde-elf/4.3.2/../../../../mips-sde-elf/lib/el/sof\libc.a(lib_a-asctime_r.o)
 .debug_abbrev  0x000000000000646b      0x257 d:/csgcc/bin/../lib/gcc/mips-sde-elf/4.3.2/../../../../mips-sde-elf/lib/el/sof\libc.a(lib_a-dtoa.o)
 .debug_abbrev  0x00000000000066c2      0x1ab d:/csgcc/bin/../lib/gcc/mips-sde-elf/4.3.2/../../../../mips-sde-elf/lib/el/sof\libc.a(lib_a-fflush.o)
 .debug_abbrev  0x000000000000686d      0x23a d:/csgcc/bin/../lib/gcc/mips-sde-elf/4.3.2/../../../../mips-sde-elf/lib/el/sof\libc.a(lib_a-findfp.o)
 .debug_abbrev  0x0000000000006aa7      0x1e0 d:/csgcc/bin/../lib/gcc/mips-sde-elf/4.3.2/../../../../mips-sde-elf/lib/el/sof\libc.a(lib_a-freer.o)
 .debug_abbrev  0x0000000000006c87      0x1ec d:/csgcc/bin/../lib/gcc/mips-sde-elf/4.3.2/../../../../mips-sde-elf/lib/el/sof\libc.a(lib_a-fwalk.o)
 .debug_abbrev  0x0000000000006e73       0xac d:/csgcc/bin/../lib/gcc/mips-sde-elf/4.3.2/../../../../mips-sde-elf/lib/el/sof\libc.a(lib_a-gettzinfo.o)
 .debug_abbrev  0x0000000000006f1f      0x228 d:/csgcc/bin/../lib/gcc/mips-sde-elf/4.3.2/../../../../mips-sde-elf/lib/el/sof\libc.a(lib_a-locale.o)
 .debug_abbrev  0x0000000000007147      0x191 d:/csgcc/bin/../lib/gcc/mips-sde-elf/4.3.2/../../../../mips-sde-elf/lib/el/sof\libc.a(lib_a-makebuf.o)
 .debug_abbrev  0x00000000000072d8      0x35a d:/csgcc/bin/../lib/gcc/mips-sde-elf/4.3.2/../../../../mips-sde-elf/lib/el/sof\libc.a(lib_a-mprec.o)
 .debug_abbrev  0x0000000000007632      0x1e1 d:/csgcc/bin/../lib/gcc/mips-sde-elf/4.3.2/../../../../mips-sde-elf/lib/el/sof\libc.a(lib_a-reent.o)
 .debug_abbrev  0x0000000000007813       0x80 d:/csgcc/bin/../lib/gcc/mips-sde-elf/4.3.2/../../../../mips-sde-elf/lib/el/sof\libc.a(lib_a-s_isinfd.o)
 .debug_abbrev  0x0000000000007893       0x71 d:/csgcc/bin/../lib/gcc/mips-sde-elf/4.3.2/../../../../mips-sde-elf/lib/el/sof\libc.a(lib_a-s_isnand.o)
 .debug_abbrev  0x0000000000007904      0x1a1 d:/csgcc/bin/../lib/gcc/mips-sde-elf/4.3.2/../../../../mips-sde-elf/lib/el/sof\libc.a(lib_a-sprintf.o)
 .debug_abbrev  0x0000000000007aa5      0x1b7 d:/csgcc/bin/../lib/gcc/mips-sde-elf/4.3.2/../../../../mips-sde-elf/lib/el/sof\libc.a(lib_a-stdio.o)
 .debug_abbrev  0x0000000000007c5c      0x18b d:/csgcc/bin/../lib/gcc/mips-sde-elf/4.3.2/../../../../mips-sde-elf/lib/el/sof\libc.a(lib_a-writer.o)
 .debug_abbrev  0x0000000000007de7      0x1b8 d:/csgcc/bin/../lib/gcc/mips-sde-elf/4.3.2/../../../../mips-sde-elf/lib/el/sof\libc.a(lib_a-callocr.o)
 .debug_abbrev  0x0000000000007f9f      0x186 d:/csgcc/bin/../lib/gcc/mips-sde-elf/4.3.2/../../../../mips-sde-elf/lib/el/sof\libc.a(lib_a-closer.o)
 .debug_abbrev  0x0000000000008125      0x1ae d:/csgcc/bin/../lib/gcc/mips-sde-elf/4.3.2/../../../../mips-sde-elf/lib/el/sof\libc.a(lib_a-fclose.o)
 .debug_abbrev  0x00000000000082d3      0x195 d:/csgcc/bin/../lib/gcc/mips-sde-elf/4.3.2/../../../../mips-sde-elf/lib/el/sof\libc.a(lib_a-fstatr.o)
 .debug_abbrev  0x0000000000008468      0x186 d:/csgcc/bin/../lib/gcc/mips-sde-elf/4.3.2/../../../../mips-sde-elf/lib/el/sof\libc.a(lib_a-isattyr.o)
 .debug_abbrev  0x00000000000085ee      0x195 d:/csgcc/bin/../lib/gcc/mips-sde-elf/4.3.2/../../../../mips-sde-elf/lib/el/sof\libc.a(lib_a-lseekr.o)
 .debug_abbrev  0x0000000000008783      0x186 d:/csgcc/bin/../lib/gcc/mips-sde-elf/4.3.2/../../../../mips-sde-elf/lib/el/sof\libc.a(lib_a-readr.o)
 .debug_abbrev  0x0000000000008909       0xd4 d:/csgcc/bin/../lib/gcc/mips-sde-elf/4.3.2/../../../../mips-sde-elf/lib/el/sof\libcs3.a(start_c.o)
 .debug_abbrev  0x00000000000089dd       0x43 d:/csgcc/bin/../lib/gcc/mips-sde-elf/4.3.2/../../../../mips-sde-elf/lib/el/sof\libcs3unhosted.a(unhosted-_exit.o)
 .debug_abbrev  0x0000000000008a20       0x81 d:/csgcc/bin/../lib/gcc/mips-sde-elf/4.3.2/../../../../mips-sde-elf/lib/el/sof\libcs3unhosted.a(unhosted-close.o)
 .debug_abbrev  0x0000000000008aa1       0xb5 d:/csgcc/bin/../lib/gcc/mips-sde-elf/4.3.2/../../../../mips-sde-elf/lib/el/sof\libcs3unhosted.a(unhosted-fstat.o)
 .debug_abbrev  0x0000000000008b56       0x81 d:/csgcc/bin/../lib/gcc/mips-sde-elf/4.3.2/../../../../mips-sde-elf/lib/el/sof\libcs3unhosted.a(unhosted-isatty.o)
 .debug_abbrev  0x0000000000008bd7       0x9d d:/csgcc/bin/../lib/gcc/mips-sde-elf/4.3.2/../../../../mips-sde-elf/lib/el/sof\libcs3unhosted.a(unhosted-lseek.o)
 .debug_abbrev  0x0000000000008c74       0x8f d:/csgcc/bin/../lib/gcc/mips-sde-elf/4.3.2/../../../../mips-sde-elf/lib/el/sof\libcs3unhosted.a(unhosted-open.o)
 .debug_abbrev  0x0000000000008d03       0xdc d:/csgcc/bin/../lib/gcc/mips-sde-elf/4.3.2/../../../../mips-sde-elf/lib/el/sof\libcs3unhosted.a(unhosted-sbrk.o)
 .debug_abbrev  0x0000000000008ddf       0x34 d:/csgcc/bin/../lib/gcc/mips-sde-elf/4.3.2/../../../../mips-sde-elf/lib/el/sof\libcs3unhosted.a(unhosted-getpid.o)
 .debug_abbrev  0x0000000000008e13       0x45 d:/csgcc/bin/../lib/gcc/mips-sde-elf/4.3.2/../../../../mips-sde-elf/lib/el/sof\libcs3unhosted.a(unhosted-kill.o)
 .debug_abbrev  0x0000000000008e58       0x14 d:/csgcc/bin/../lib/gcc/mips-sde-elf/4.3.2/../../../../mips-sde-elf/lib/el/sof\libcs3unhosted.a(start.o)
 .debug_abbrev  0x0000000000008e6c      0x15a d:/csgcc/bin/../lib/gcc/mips-sde-elf/4.3.2/el/sof\libgcc.a(_udivdi3.o)
 .debug_abbrev  0x0000000000008fc6      0x172 d:/csgcc/bin/../lib/gcc/mips-sde-elf/4.3.2/el/sof\libgcc.a(_umoddi3.o)
 .debug_abbrev  0x0000000000009138      0x1db d:/csgcc/bin/../lib/gcc/mips-sde-elf/4.3.2/el/sof\libgcc.a(_addsub_df.o)
 .debug_abbrev  0x0000000000009313      0x212 d:/csgcc/bin/../lib/gcc/mips-sde-elf/4.3.2/el/sof\libgcc.a(_mul_df.o)
 .debug_abbrev  0x0000000000009525      0x20d d:/csgcc/bin/../lib/gcc/mips-sde-elf/4.3.2/el/sof\libgcc.a(_div_df.o)
 .debug_abbrev  0x0000000000009732      0x15a d:/csgcc/bin/../lib/gcc/mips-sde-elf/4.3.2/el/sof\libgcc.a(_eq_df.o)
 .debug_abbrev  0x000000000000988c      0x15a d:/csgcc/bin/../lib/gcc/mips-sde-elf/4.3.2/el/sof\libgcc.a(_ne_df.o)
 .debug_abbrev  0x00000000000099e6      0x15a d:/csgcc/bin/../lib/gcc/mips-sde-elf/4.3.2/el/sof\libgcc.a(_gt_df.o)
 .debug_abbrev  0x0000000000009b40      0x15a d:/csgcc/bin/../lib/gcc/mips-sde-elf/4.3.2/el/sof\libgcc.a(_ge_df.o)
 .debug_abbrev  0x0000000000009c9a      0x15a d:/csgcc/bin/../lib/gcc/mips-sde-elf/4.3.2/el/sof\libgcc.a(_lt_df.o)
 .debug_abbrev  0x0000000000009df4      0x148 d:/csgcc/bin/../lib/gcc/mips-sde-elf/4.3.2/el/sof\libgcc.a(_si_to_df.o)
 .debug_abbrev  0x0000000000009f3c      0x17f d:/csgcc/bin/../lib/gcc/mips-sde-elf/4.3.2/el/sof\libgcc.a(_df_to_si.o)
 .debug_abbrev  0x000000000000a0bb       0xc3 d:/csgcc/bin/../lib/gcc/mips-sde-elf/4.3.2/el/sof\libgcc.a(_thenan_df.o)
 .debug_abbrev  0x000000000000a17e      0x157 d:/csgcc/bin/../lib/gcc/mips-sde-elf/4.3.2/el/sof\libgcc.a(_usi_to_df.o)
 .debug_abbrev  0x000000000000a2d5       0xe8 d:/csgcc/bin/../lib/gcc/mips-sde-elf/4.3.2/el/sof\libgcc.a(_lshrdi3.o)
 .debug_abbrev  0x000000000000a3bd       0xf7 d:/csgcc/bin/../lib/gcc/mips-sde-elf/4.3.2/el/sof\libgcc.a(_ashldi3.o)
 .debug_abbrev  0x000000000000a4b4       0xd0 d:/csgcc/bin/../lib/gcc/mips-sde-elf/4.3.2/el/sof\libgcc.a(_ucmpdi2.o)
 .debug_abbrev  0x000000000000a584      0x1c0 d:/csgcc/bin/../lib/gcc/mips-sde-elf/4.3.2/el/sof\libgcc.a(_pack_df.o)
 .debug_abbrev  0x000000000000a744      0x163 d:/csgcc/bin/../lib/gcc/mips-sde-elf/4.3.2/el/sof\libgcc.a(_unpack_df.o)
 .debug_abbrev  0x000000000000a8a7      0x14a d:/csgcc/bin/../lib/gcc/mips-sde-elf/4.3.2/el/sof\libgcc.a(_fpcmp_parts_df.o)
 .debug_abbrev  0x000000000000a9f1      0x166 d:/csgcc/bin/../lib/gcc/mips-sde-elf/4.3.2/../../../../mips-sde-elf/lib/el/sof\libc.a(lib_a-errno.o)
 .debug_abbrev  0x000000000000ab57       0xa2 d:/csgcc/bin/../lib/gcc/mips-sde-elf/4.3.2/../../../../mips-sde-elf/lib/el/sof\libc.a(lib_a-init.o)
 .debug_abbrev  0x000000000000abf9       0x46 d:/csgcc/bin/../lib/gcc/mips-sde-elf/4.3.2/../../../../mips-sde-elf/lib/el/sof\libcs3.a(heap.o)

.debug_line     0x0000000000000000     0xa2f8
 *(.debug_line)
 .debug_line    0x0000000000000000       0x80 d:/csgcc/bin/../lib/gcc/mips-sde-elf/4.3.2/el/sof/crti.o
 .debug_line    0x0000000000000080       0x33 obj/pic32mx_cfg_init.o
 .debug_line    0x00000000000000b3       0x6f obj/PIC32MX-reset.o
 .debug_line    0x0000000000000122       0x4b obj/ISRwrapper.o
 .debug_line    0x000000000000016d      0x225 obj/CPP_Demo.o
 .debug_line    0x0000000000000392       0xfa obj/DRN_PIC32MX_UART1.o
 .debug_line    0x000000000000048c       0xa1 obj/DRN_PIC32MX_CS_glue.o
 .debug_line    0x000000000000052d       0xee obj/PIC32MX_time.o
 .debug_line    0x000000000000061b       0x8f obj/int_enable_interrupts_lib.o
 .debug_line    0x00000000000006aa       0x90 obj/int_disable_interrupts_lib.o
 .debug_line    0x000000000000073a       0x91 obj/int_restore_interrupts_lib.o
 .debug_line    0x00000000000007cb       0x5b obj/pcache.o
 .debug_line    0x0000000000000826      0x493 d:/csgcc/bin/../lib/gcc/mips-sde-elf/4.3.2/../../../../mips-sde-elf/lib/el/sof\libstdc++.a(eh_personality.o)
 .debug_line    0x0000000000000cb9      0x200 d:/csgcc/bin/../lib/gcc/mips-sde-elf/4.3.2/../../../../mips-sde-elf/lib/el/sof\libstdc++.a(eh_terminate.o)
 .debug_line    0x0000000000000eb9      0x1b6 d:/csgcc/bin/../lib/gcc/mips-sde-elf/4.3.2/../../../../mips-sde-elf/lib/el/sof\libstdc++.a(eh_throw.o)
 .debug_line    0x000000000000106f      0x14c d:/csgcc/bin/../lib/gcc/mips-sde-elf/4.3.2/../../../../mips-sde-elf/lib/el/sof\libstdc++.a(eh_unex_handler.o)
 .debug_line    0x00000000000011bb      0x2e6 d:/csgcc/bin/../lib/gcc/mips-sde-elf/4.3.2/../../../../mips-sde-elf/lib/el/sof\libstdc++.a(eh_alloc.o)
 .debug_line    0x00000000000014a1      0x1a4 d:/csgcc/bin/../lib/gcc/mips-sde-elf/4.3.2/../../../../mips-sde-elf/lib/el/sof\libstdc++.a(eh_call.o)
 .debug_line    0x0000000000001645      0x20b d:/csgcc/bin/../lib/gcc/mips-sde-elf/4.3.2/../../../../mips-sde-elf/lib/el/sof\libstdc++.a(eh_catch.o)
 .debug_line    0x0000000000001850      0x193 d:/csgcc/bin/../lib/gcc/mips-sde-elf/4.3.2/../../../../mips-sde-elf/lib/el/sof\libstdc++.a(eh_exception.o)
 .debug_line    0x00000000000019e3      0x1c1 d:/csgcc/bin/../lib/gcc/mips-sde-elf/4.3.2/../../../../mips-sde-elf/lib/el/sof\libstdc++.a(eh_globals.o)
 .debug_line    0x0000000000001ba4      0x14c d:/csgcc/bin/../lib/gcc/mips-sde-elf/4.3.2/../../../../mips-sde-elf/lib/el/sof\libstdc++.a(eh_term_handler.o)
 .debug_line    0x0000000000001cf0      0x155 d:/csgcc/bin/../lib/gcc/mips-sde-elf/4.3.2/../../../../mips-sde-elf/lib/el/sof\libstdc++.a(pure.o)
 .debug_line    0x0000000000001e45      0x1dd d:/csgcc/bin/../lib/gcc/mips-sde-elf/4.3.2/../../../../mips-sde-elf/lib/el/sof\libstdc++.a(si_class_type_info.o)
 .debug_line    0x0000000000002022      0x174 d:/csgcc/bin/../lib/gcc/mips-sde-elf/4.3.2/../../../../mips-sde-elf/lib/el/sof\libstdc++.a(tinfo.o)
 .debug_line    0x0000000000002196      0x22b d:/csgcc/bin/../lib/gcc/mips-sde-elf/4.3.2/../../../../mips-sde-elf/lib/el/sof\libstdc++.a(vterminate.o)
 .debug_line    0x00000000000023c1      0xae5 d:/csgcc/bin/../lib/gcc/mips-sde-elf/4.3.2/../../../../mips-sde-elf/lib/el/sof\libstdc++.a(cp-demangle.o)
 .debug_line    0x0000000000002ea6      0x212 d:/csgcc/bin/../lib/gcc/mips-sde-elf/4.3.2/../../../../mips-sde-elf/lib/el/sof\libstdc++.a(class_type_info.o)
 .debug_line    0x00000000000030b8      0x176 d:/csgcc/bin/../lib/gcc/mips-sde-elf/4.3.2/../../../../mips-sde-elf/lib/el/sof\libstdc++.a(del_op.o)
 .debug_line    0x000000000000322e       0xff d:/csgcc/bin/../lib/gcc/mips-sde-elf/4.3.2/../../../../mips-sde-elf/lib/el/sof\libstdc++.a(eh_type.o)
 .debug_line    0x000000000000332d      0x845 d:/csgcc/bin/../lib/gcc/mips-sde-elf/4.3.2/el/sof\libgcc.a(unwind-dw2.o)
 .debug_line    0x0000000000003b72      0x4f1 d:/csgcc/bin/../lib/gcc/mips-sde-elf/4.3.2/el/sof\libgcc.a(unwind-dw2-fde.o)
 .debug_line    0x0000000000004063       0x82 d:/csgcc/bin/../lib/gcc/mips-sde-elf/4.3.2/el/sof/crtn.o
 .debug_line    0x00000000000040e5       0x76 d:/csgcc/bin/../lib/gcc/mips-sde-elf/4.3.2/../../../../mips-sde-elf/lib/el/sof\libc.a(lib_a-abort.o)
 .debug_line    0x000000000000415b       0xc1 d:/csgcc/bin/../lib/gcc/mips-sde-elf/4.3.2/../../../../mips-sde-elf/lib/el/sof\libc.a(lib_a-ctime.o)
 .debug_line    0x000000000000421c      0x16f d:/csgcc/bin/../lib/gcc/mips-sde-elf/4.3.2/../../../../mips-sde-elf/lib/el/sof\libc.a(lib_a-fputc.o)
 .debug_line    0x000000000000438b      0x17e d:/csgcc/bin/../lib/gcc/mips-sde-elf/4.3.2/../../../../mips-sde-elf/lib/el/sof\libc.a(lib_a-fputs.o)
 .debug_line    0x0000000000004509      0x226 d:/csgcc/bin/../lib/gcc/mips-sde-elf/4.3.2/../../../../mips-sde-elf/lib/el/sof\libc.a(lib_a-fvwrite.o)
 .debug_line    0x000000000000472f      0x106 d:/csgcc/bin/../lib/gcc/mips-sde-elf/4.3.2/../../../../mips-sde-elf/lib/el/sof\libc.a(lib_a-impure.o)
 .debug_line    0x0000000000004835      0x16c d:/csgcc/bin/../lib/gcc/mips-sde-elf/4.3.2/../../../../mips-sde-elf/lib/el/sof\libc.a(lib_a-lcltime.o)
 .debug_line    0x00000000000049a1      0x10d d:/csgcc/bin/../lib/gcc/mips-sde-elf/4.3.2/../../../../mips-sde-elf/lib/el/sof\libc.a(lib_a-lcltime_r.o)
 .debug_line    0x0000000000004aae      0x126 d:/csgcc/bin/../lib/gcc/mips-sde-elf/4.3.2/../../../../mips-sde-elf/lib/el/sof\libc.a(lib_a-malloc.o)
 .debug_line    0x0000000000004bd4      0x1f7 d:/csgcc/bin/../lib/gcc/mips-sde-elf/4.3.2/../../../../mips-sde-elf/lib/el/sof\libc.a(lib_a-mallocr.o)
 .debug_line    0x0000000000004dcb       0xc6 d:/csgcc/bin/../lib/gcc/mips-sde-elf/4.3.2/../../../../mips-sde-elf/lib/el/sof\libc.a(lib_a-memchr.o)
 .debug_line    0x0000000000004e91       0xc5 d:/csgcc/bin/../lib/gcc/mips-sde-elf/4.3.2/../../../../mips-sde-elf/lib/el/sof\libc.a(lib_a-memcmp.o)
 .debug_line    0x0000000000004f56       0xcd d:/csgcc/bin/../lib/gcc/mips-sde-elf/4.3.2/../../../../mips-sde-elf/lib/el/sof\libc.a(lib_a-memcpy.o)
 .debug_line    0x0000000000005023       0xd4 d:/csgcc/bin/../lib/gcc/mips-sde-elf/4.3.2/../../../../mips-sde-elf/lib/el/sof\libc.a(lib_a-memmove.o)
 .debug_line    0x00000000000050f7       0xcb d:/csgcc/bin/../lib/gcc/mips-sde-elf/4.3.2/../../../../mips-sde-elf/lib/el/sof\libc.a(lib_a-memset.o)
 .debug_line    0x00000000000051c2      0x1f6 d:/csgcc/bin/../lib/gcc/mips-sde-elf/4.3.2/../../../../mips-sde-elf/lib/el/sof\libc.a(lib_a-mktm_r.o)
 .debug_line    0x00000000000053b8      0x118 d:/csgcc/bin/../lib/gcc/mips-sde-elf/4.3.2/../../../../mips-sde-elf/lib/el/sof\libc.a(lib_a-mlock.o)
 .debug_line    0x00000000000054d0      0x13a d:/csgcc/bin/../lib/gcc/mips-sde-elf/4.3.2/../../../../mips-sde-elf/lib/el/sof\libc.a(lib_a-printf.o)
 .debug_line    0x000000000000560a      0x173 d:/csgcc/bin/../lib/gcc/mips-sde-elf/4.3.2/../../../../mips-sde-elf/lib/el/sof\libc.a(lib_a-putc.o)
 .debug_line    0x000000000000577d      0x11f d:/csgcc/bin/../lib/gcc/mips-sde-elf/4.3.2/../../../../mips-sde-elf/lib/el/sof\libc.a(lib_a-realloc.o)
 .debug_line    0x000000000000589c      0x199 d:/csgcc/bin/../lib/gcc/mips-sde-elf/4.3.2/../../../../mips-sde-elf/lib/el/sof\libc.a(lib_a-reallocr.o)
 .debug_line    0x0000000000005a35      0x11b d:/csgcc/bin/../lib/gcc/mips-sde-elf/4.3.2/../../../../mips-sde-elf/lib/el/sof\libc.a(lib_a-sbrkr.o)
 .debug_line    0x0000000000005b50      0x17a d:/csgcc/bin/../lib/gcc/mips-sde-elf/4.3.2/../../../../mips-sde-elf/lib/el/sof\libc.a(lib_a-signal.o)
 .debug_line    0x0000000000005cca      0x123 d:/csgcc/bin/../lib/gcc/mips-sde-elf/4.3.2/../../../../mips-sde-elf/lib/el/sof\libc.a(lib_a-signalr.o)
 .debug_line    0x0000000000005ded       0x8a d:/csgcc/bin/../lib/gcc/mips-sde-elf/4.3.2/../../../../mips-sde-elf/lib/el/sof\libc.a(lib_a-strcmp.o)
 .debug_line    0x0000000000005e77       0x7b d:/csgcc/bin/../lib/gcc/mips-sde-elf/4.3.2/../../../../mips-sde-elf/lib/el/sof\libc.a(lib_a-strcpy.o)
 .debug_line    0x0000000000005ef2       0x1d d:/csgcc/bin/../lib/gcc/mips-sde-elf/4.3.2/../../../../mips-sde-elf/lib/el/sof\libc.a(lib_a-strlen.o)
 .debug_line    0x0000000000005f0f       0xc8 d:/csgcc/bin/../lib/gcc/mips-sde-elf/4.3.2/../../../../mips-sde-elf/lib/el/sof\libc.a(lib_a-strncmp.o)
 .debug_line    0x0000000000005fd7       0x64 d:/csgcc/bin/../lib/gcc/mips-sde-elf/4.3.2/../../../../mips-sde-elf/lib/el/sof\libc.a(lib_a-tzvars.o)
 .debug_line    0x000000000000603b      0x42e d:/csgcc/bin/../lib/gcc/mips-sde-elf/4.3.2/../../../../mips-sde-elf/lib/el/sof\libc.a(lib_a-vfprintf.o)
 .debug_line    0x0000000000006469      0x18a d:/csgcc/bin/../lib/gcc/mips-sde-elf/4.3.2/../../../../mips-sde-elf/lib/el/sof\libc.a(lib_a-wbuf.o)
 .debug_line    0x00000000000065f3      0x17a d:/csgcc/bin/../lib/gcc/mips-sde-elf/4.3.2/../../../../mips-sde-elf/lib/el/sof\libc.a(lib_a-wsetup.o)
 .debug_line    0x000000000000676d      0x161 d:/csgcc/bin/../lib/gcc/mips-sde-elf/4.3.2/../../../../mips-sde-elf/lib/el/sof\libc.a(lib_a-asctime.o)
 .debug_line    0x00000000000068ce       0xd8 d:/csgcc/bin/../lib/gcc/mips-sde-elf/4.3.2/../../../../mips-sde-elf/lib/el/sof\libc.a(lib_a-asctime_r.o)
 .debug_line    0x00000000000069a6      0x3bc d:/csgcc/bin/../lib/gcc/mips-sde-elf/4.3.2/../../../../mips-sde-elf/lib/el/sof\libc.a(lib_a-dtoa.o)
 .debug_line    0x0000000000006d62      0x1ad d:/csgcc/bin/../lib/gcc/mips-sde-elf/4.3.2/../../../../mips-sde-elf/lib/el/sof\libc.a(lib_a-fflush.o)
 .debug_line    0x0000000000006f0f      0x22a d:/csgcc/bin/../lib/gcc/mips-sde-elf/4.3.2/../../../../mips-sde-elf/lib/el/sof\libc.a(lib_a-findfp.o)
 .debug_line    0x0000000000007139      0x16f d:/csgcc/bin/../lib/gcc/mips-sde-elf/4.3.2/../../../../mips-sde-elf/lib/el/sof\libc.a(lib_a-freer.o)
 .debug_line    0x00000000000072a8      0x182 d:/csgcc/bin/../lib/gcc/mips-sde-elf/4.3.2/../../../../mips-sde-elf/lib/el/sof\libc.a(lib_a-fwalk.o)
 .debug_line    0x000000000000742a      0x10d d:/csgcc/bin/../lib/gcc/mips-sde-elf/4.3.2/../../../../mips-sde-elf/lib/el/sof\libc.a(lib_a-gettzinfo.o)
 .debug_line    0x0000000000007537      0x183 d:/csgcc/bin/../lib/gcc/mips-sde-elf/4.3.2/../../../../mips-sde-elf/lib/el/sof\libc.a(lib_a-locale.o)
 .debug_line    0x00000000000076ba      0x1aa d:/csgcc/bin/../lib/gcc/mips-sde-elf/4.3.2/../../../../mips-sde-elf/lib/el/sof\libc.a(lib_a-makebuf.o)
 .debug_line    0x0000000000007864      0x422 d:/csgcc/bin/../lib/gcc/mips-sde-elf/4.3.2/../../../../mips-sde-elf/lib/el/sof\libc.a(lib_a-mprec.o)
 .debug_line    0x0000000000007c86      0x152 d:/csgcc/bin/../lib/gcc/mips-sde-elf/4.3.2/../../../../mips-sde-elf/lib/el/sof\libc.a(lib_a-reent.o)
 .debug_line    0x0000000000007dd8       0xd6 d:/csgcc/bin/../lib/gcc/mips-sde-elf/4.3.2/../../../../mips-sde-elf/lib/el/sof\libc.a(lib_a-s_isinfd.o)
 .debug_line    0x0000000000007eae       0xd6 d:/csgcc/bin/../lib/gcc/mips-sde-elf/4.3.2/../../../../mips-sde-elf/lib/el/sof\libc.a(lib_a-s_isnand.o)
 .debug_line    0x0000000000007f84      0x1ae d:/csgcc/bin/../lib/gcc/mips-sde-elf/4.3.2/../../../../mips-sde-elf/lib/el/sof\libc.a(lib_a-sprintf.o)
 .debug_line    0x0000000000008132      0x196 d:/csgcc/bin/../lib/gcc/mips-sde-elf/4.3.2/../../../../mips-sde-elf/lib/el/sof\libc.a(lib_a-stdio.o)
 .debug_line    0x00000000000082c8      0x11c d:/csgcc/bin/../lib/gcc/mips-sde-elf/4.3.2/../../../../mips-sde-elf/lib/el/sof\libc.a(lib_a-writer.o)
 .debug_line    0x00000000000083e4      0x122 d:/csgcc/bin/../lib/gcc/mips-sde-elf/4.3.2/../../../../mips-sde-elf/lib/el/sof\libc.a(lib_a-callocr.o)
 .debug_line    0x0000000000008506      0x11c d:/csgcc/bin/../lib/gcc/mips-sde-elf/4.3.2/../../../../mips-sde-elf/lib/el/sof\libc.a(lib_a-closer.o)
 .debug_line    0x0000000000008622      0x17a d:/csgcc/bin/../lib/gcc/mips-sde-elf/4.3.2/../../../../mips-sde-elf/lib/el/sof\libc.a(lib_a-fclose.o)
 .debug_line    0x000000000000879c      0x17a d:/csgcc/bin/../lib/gcc/mips-sde-elf/4.3.2/../../../../mips-sde-elf/lib/el/sof\libc.a(lib_a-fstatr.o)
 .debug_line    0x0000000000008916      0x11d d:/csgcc/bin/../lib/gcc/mips-sde-elf/4.3.2/../../../../mips-sde-elf/lib/el/sof\libc.a(lib_a-isattyr.o)
 .debug_line    0x0000000000008a33      0x11c d:/csgcc/bin/../lib/gcc/mips-sde-elf/4.3.2/../../../../mips-sde-elf/lib/el/sof\libc.a(lib_a-lseekr.o)
 .debug_line    0x0000000000008b4f      0x11b d:/csgcc/bin/../lib/gcc/mips-sde-elf/4.3.2/../../../../mips-sde-elf/lib/el/sof\libc.a(lib_a-readr.o)
 .debug_line    0x0000000000008c6a       0xd6 d:/csgcc/bin/../lib/gcc/mips-sde-elf/4.3.2/../../../../mips-sde-elf/lib/el/sof\libcs3.a(start_c.o)
 .debug_line    0x0000000000008d40       0x65 d:/csgcc/bin/../lib/gcc/mips-sde-elf/4.3.2/../../../../mips-sde-elf/lib/el/sof\libcs3unhosted.a(unhosted-_exit.o)
 .debug_line    0x0000000000008da5       0x6b d:/csgcc/bin/../lib/gcc/mips-sde-elf/4.3.2/../../../../mips-sde-elf/lib/el/sof\libcs3unhosted.a(unhosted-close.o)
 .debug_line    0x0000000000008e10       0xe3 d:/csgcc/bin/../lib/gcc/mips-sde-elf/4.3.2/../../../../mips-sde-elf/lib/el/sof\libcs3unhosted.a(unhosted-fstat.o)
 .debug_line    0x0000000000008ef3       0x6c d:/csgcc/bin/../lib/gcc/mips-sde-elf/4.3.2/../../../../mips-sde-elf/lib/el/sof\libcs3unhosted.a(unhosted-isatty.o)
 .debug_line    0x0000000000008f5f       0xdb d:/csgcc/bin/../lib/gcc/mips-sde-elf/4.3.2/../../../../mips-sde-elf/lib/el/sof\libcs3unhosted.a(unhosted-lseek.o)
 .debug_line    0x000000000000903a       0x6b d:/csgcc/bin/../lib/gcc/mips-sde-elf/4.3.2/../../../../mips-sde-elf/lib/el/sof\libcs3unhosted.a(unhosted-open.o)
 .debug_line    0x00000000000090a5       0x75 d:/csgcc/bin/../lib/gcc/mips-sde-elf/4.3.2/../../../../mips-sde-elf/lib/el/sof\libcs3unhosted.a(unhosted-sbrk.o)
 .debug_line    0x000000000000911a       0x60 d:/csgcc/bin/../lib/gcc/mips-sde-elf/4.3.2/../../../../mips-sde-elf/lib/el/sof\libcs3unhosted.a(unhosted-getpid.o)
 .debug_line    0x000000000000917a       0x61 d:/csgcc/bin/../lib/gcc/mips-sde-elf/4.3.2/../../../../mips-sde-elf/lib/el/sof\libcs3unhosted.a(unhosted-kill.o)
 .debug_line    0x00000000000091db       0x62 d:/csgcc/bin/../lib/gcc/mips-sde-elf/4.3.2/../../../../mips-sde-elf/lib/el/sof\libcs3unhosted.a(start.o)
 .debug_line    0x000000000000923d       0xc9 d:/csgcc/bin/../lib/gcc/mips-sde-elf/4.3.2/el/sof\libgcc.a(_udivdi3.o)
 .debug_line    0x0000000000009306       0xd0 d:/csgcc/bin/../lib/gcc/mips-sde-elf/4.3.2/el/sof\libgcc.a(_umoddi3.o)
 .debug_line    0x00000000000093d6      0x137 d:/csgcc/bin/../lib/gcc/mips-sde-elf/4.3.2/el/sof\libgcc.a(_addsub_df.o)
 .debug_line    0x000000000000950d      0x111 d:/csgcc/bin/../lib/gcc/mips-sde-elf/4.3.2/el/sof\libgcc.a(_mul_df.o)
 .debug_line    0x000000000000961e       0xf0 d:/csgcc/bin/../lib/gcc/mips-sde-elf/4.3.2/el/sof\libgcc.a(_div_df.o)
 .debug_line    0x000000000000970e       0xa6 d:/csgcc/bin/../lib/gcc/mips-sde-elf/4.3.2/el/sof\libgcc.a(_eq_df.o)
 .debug_line    0x00000000000097b4       0xa6 d:/csgcc/bin/../lib/gcc/mips-sde-elf/4.3.2/el/sof\libgcc.a(_ne_df.o)
 .debug_line    0x000000000000985a       0xa6 d:/csgcc/bin/../lib/gcc/mips-sde-elf/4.3.2/el/sof\libgcc.a(_gt_df.o)
 .debug_line    0x0000000000009900       0xa6 d:/csgcc/bin/../lib/gcc/mips-sde-elf/4.3.2/el/sof\libgcc.a(_ge_df.o)
 .debug_line    0x00000000000099a6       0xa6 d:/csgcc/bin/../lib/gcc/mips-sde-elf/4.3.2/el/sof\libgcc.a(_lt_df.o)
 .debug_line    0x0000000000009a4c       0xb5 d:/csgcc/bin/../lib/gcc/mips-sde-elf/4.3.2/el/sof\libgcc.a(_si_to_df.o)
 .debug_line    0x0000000000009b01       0xad d:/csgcc/bin/../lib/gcc/mips-sde-elf/4.3.2/el/sof\libgcc.a(_df_to_si.o)
 .debug_line    0x0000000000009bae       0x83 d:/csgcc/bin/../lib/gcc/mips-sde-elf/4.3.2/el/sof\libgcc.a(_thenan_df.o)
 .debug_line    0x0000000000009c31       0xb9 d:/csgcc/bin/../lib/gcc/mips-sde-elf/4.3.2/el/sof\libgcc.a(_usi_to_df.o)
 .debug_line    0x0000000000009cea       0x85 d:/csgcc/bin/../lib/gcc/mips-sde-elf/4.3.2/el/sof\libgcc.a(_lshrdi3.o)
 .debug_line    0x0000000000009d6f       0x85 d:/csgcc/bin/../lib/gcc/mips-sde-elf/4.3.2/el/sof\libgcc.a(_ashldi3.o)
 .debug_line    0x0000000000009df4       0x81 d:/csgcc/bin/../lib/gcc/mips-sde-elf/4.3.2/el/sof\libgcc.a(_ucmpdi2.o)
 .debug_line    0x0000000000009e75       0xdf d:/csgcc/bin/../lib/gcc/mips-sde-elf/4.3.2/el/sof\libgcc.a(_pack_df.o)
 .debug_line    0x0000000000009f54       0xbb d:/csgcc/bin/../lib/gcc/mips-sde-elf/4.3.2/el/sof\libgcc.a(_unpack_df.o)
 .debug_line    0x000000000000a00f       0xbf d:/csgcc/bin/../lib/gcc/mips-sde-elf/4.3.2/el/sof\libgcc.a(_fpcmp_parts_df.o)
 .debug_line    0x000000000000a0ce      0x116 d:/csgcc/bin/../lib/gcc/mips-sde-elf/4.3.2/../../../../mips-sde-elf/lib/el/sof\libc.a(lib_a-errno.o)
 .debug_line    0x000000000000a1e4       0xc6 d:/csgcc/bin/../lib/gcc/mips-sde-elf/4.3.2/../../../../mips-sde-elf/lib/el/sof\libc.a(lib_a-init.o)
 .debug_line    0x000000000000a2aa       0x4e d:/csgcc/bin/../lib/gcc/mips-sde-elf/4.3.2/../../../../mips-sde-elf/lib/el/sof\libcs3.a(heap.o)

.debug_frame    0x0000000000000000     0x2744
 *(.debug_frame)
 .debug_frame   0x0000000000000000       0x9c obj/CPP_Demo.o
 .debug_frame   0x000000000000009c      0x128 obj/DRN_PIC32MX_UART1.o
 .debug_frame   0x00000000000001c4       0x80 obj/DRN_PIC32MX_CS_glue.o
 .debug_frame   0x0000000000000244       0x9c obj/PIC32MX_time.o
 .debug_frame   0x00000000000002e0       0x2c obj/int_enable_interrupts_lib.o
 .debug_frame   0x000000000000030c       0x2c obj/int_disable_interrupts_lib.o
 .debug_frame   0x0000000000000338       0x2c obj/int_restore_interrupts_lib.o
 .debug_frame   0x0000000000000364       0x48 obj/pcache.o
 .debug_frame   0x00000000000003ac      0x120 d:/csgcc/bin/../lib/gcc/mips-sde-elf/4.3.2/../../../../mips-sde-elf/lib/el/sof\libstdc++.a(eh_personality.o)
 .debug_frame   0x00000000000004cc       0x90 d:/csgcc/bin/../lib/gcc/mips-sde-elf/4.3.2/../../../../mips-sde-elf/lib/el/sof\libstdc++.a(eh_terminate.o)
 .debug_frame   0x000000000000055c       0x5c d:/csgcc/bin/../lib/gcc/mips-sde-elf/4.3.2/../../../../mips-sde-elf/lib/el/sof\libstdc++.a(eh_throw.o)
 .debug_frame   0x00000000000005b8       0x54 d:/csgcc/bin/../lib/gcc/mips-sde-elf/4.3.2/../../../../mips-sde-elf/lib/el/sof\libstdc++.a(eh_alloc.o)
 .debug_frame   0x000000000000060c       0x28 d:/csgcc/bin/../lib/gcc/mips-sde-elf/4.3.2/../../../../mips-sde-elf/lib/el/sof\libstdc++.a(eh_call.o)
 .debug_frame   0x0000000000000634       0x6c d:/csgcc/bin/../lib/gcc/mips-sde-elf/4.3.2/../../../../mips-sde-elf/lib/el/sof\libstdc++.a(eh_catch.o)
 .debug_frame   0x00000000000006a0      0x110 d:/csgcc/bin/../lib/gcc/mips-sde-elf/4.3.2/../../../../mips-sde-elf/lib/el/sof\libstdc++.a(eh_exception.o)
 .debug_frame   0x00000000000007b0       0x30 d:/csgcc/bin/../lib/gcc/mips-sde-elf/4.3.2/../../../../mips-sde-elf/lib/el/sof\libstdc++.a(eh_globals.o)
 .debug_frame   0x00000000000007e0       0x28 d:/csgcc/bin/../lib/gcc/mips-sde-elf/4.3.2/../../../../mips-sde-elf/lib/el/sof\libstdc++.a(pure.o)
 .debug_frame   0x0000000000000808       0x98 d:/csgcc/bin/../lib/gcc/mips-sde-elf/4.3.2/../../../../mips-sde-elf/lib/el/sof\libstdc++.a(si_class_type_info.o)
 .debug_frame   0x00000000000008a0       0x88 d:/csgcc/bin/../lib/gcc/mips-sde-elf/4.3.2/../../../../mips-sde-elf/lib/el/sof\libstdc++.a(tinfo.o)
 .debug_frame   0x0000000000000928       0x2c d:/csgcc/bin/../lib/gcc/mips-sde-elf/4.3.2/../../../../mips-sde-elf/lib/el/sof\libstdc++.a(vterminate.o)
 .debug_frame   0x0000000000000954      0x394 d:/csgcc/bin/../lib/gcc/mips-sde-elf/4.3.2/../../../../mips-sde-elf/lib/el/sof\libstdc++.a(cp-demangle.o)
 .debug_frame   0x0000000000000ce8       0xb4 d:/csgcc/bin/../lib/gcc/mips-sde-elf/4.3.2/../../../../mips-sde-elf/lib/el/sof\libstdc++.a(class_type_info.o)
 .debug_frame   0x0000000000000d9c       0x28 d:/csgcc/bin/../lib/gcc/mips-sde-elf/4.3.2/../../../../mips-sde-elf/lib/el/sof\libstdc++.a(del_op.o)
 .debug_frame   0x0000000000000dc4       0x28 d:/csgcc/bin/../lib/gcc/mips-sde-elf/4.3.2/../../../../mips-sde-elf/lib/el/sof\libstdc++.a(eh_type.o)
 .debug_frame   0x0000000000000dec      0x3c8 d:/csgcc/bin/../lib/gcc/mips-sde-elf/4.3.2/el/sof\libgcc.a(unwind-dw2.o)
 .debug_frame   0x00000000000011b4      0x298 d:/csgcc/bin/../lib/gcc/mips-sde-elf/4.3.2/el/sof\libgcc.a(unwind-dw2-fde.o)
 .debug_frame   0x000000000000144c       0x28 d:/csgcc/bin/../lib/gcc/mips-sde-elf/4.3.2/../../../../mips-sde-elf/lib/el/sof\libc.a(lib_a-abort.o)
 .debug_frame   0x0000000000001474       0x28 d:/csgcc/bin/../lib/gcc/mips-sde-elf/4.3.2/../../../../mips-sde-elf/lib/el/sof\libc.a(lib_a-ctime.o)
 .debug_frame   0x000000000000149c       0x3c d:/csgcc/bin/../lib/gcc/mips-sde-elf/4.3.2/../../../../mips-sde-elf/lib/el/sof\libc.a(lib_a-fputc.o)
 .debug_frame   0x00000000000014d8       0x3c d:/csgcc/bin/../lib/gcc/mips-sde-elf/4.3.2/../../../../mips-sde-elf/lib/el/sof\libc.a(lib_a-fputs.o)
 .debug_frame   0x0000000000001514       0x38 d:/csgcc/bin/../lib/gcc/mips-sde-elf/4.3.2/../../../../mips-sde-elf/lib/el/sof\libc.a(lib_a-fvwrite.o)
 .debug_frame   0x000000000000154c       0x28 d:/csgcc/bin/../lib/gcc/mips-sde-elf/4.3.2/../../../../mips-sde-elf/lib/el/sof\libc.a(lib_a-lcltime.o)
 .debug_frame   0x0000000000001574       0x28 d:/csgcc/bin/../lib/gcc/mips-sde-elf/4.3.2/../../../../mips-sde-elf/lib/el/sof\libc.a(lib_a-lcltime_r.o)
 .debug_frame   0x000000000000159c       0x40 d:/csgcc/bin/../lib/gcc/mips-sde-elf/4.3.2/../../../../mips-sde-elf/lib/el/sof\libc.a(lib_a-malloc.o)
 .debug_frame   0x00000000000015dc       0x34 d:/csgcc/bin/../lib/gcc/mips-sde-elf/4.3.2/../../../../mips-sde-elf/lib/el/sof\libc.a(lib_a-mallocr.o)
 .debug_frame   0x0000000000001610       0x20 d:/csgcc/bin/../lib/gcc/mips-sde-elf/4.3.2/../../../../mips-sde-elf/lib/el/sof\libc.a(lib_a-memchr.o)
 .debug_frame   0x0000000000001630       0x20 d:/csgcc/bin/../lib/gcc/mips-sde-elf/4.3.2/../../../../mips-sde-elf/lib/el/sof\libc.a(lib_a-memcmp.o)
 .debug_frame   0x0000000000001650       0x20 d:/csgcc/bin/../lib/gcc/mips-sde-elf/4.3.2/../../../../mips-sde-elf/lib/el/sof\libc.a(lib_a-memcpy.o)
 .debug_frame   0x0000000000001670       0x20 d:/csgcc/bin/../lib/gcc/mips-sde-elf/4.3.2/../../../../mips-sde-elf/lib/el/sof\libc.a(lib_a-memmove.o)
 .debug_frame   0x0000000000001690       0x20 d:/csgcc/bin/../lib/gcc/mips-sde-elf/4.3.2/../../../../mips-sde-elf/lib/el/sof\libc.a(lib_a-memset.o)
 .debug_frame   0x00000000000016b0       0x5c d:/csgcc/bin/../lib/gcc/mips-sde-elf/4.3.2/../../../../mips-sde-elf/lib/el/sof\libc.a(lib_a-mktm_r.o)
 .debug_frame   0x000000000000170c       0x30 d:/csgcc/bin/../lib/gcc/mips-sde-elf/4.3.2/../../../../mips-sde-elf/lib/el/sof\libc.a(lib_a-mlock.o)
 .debug_frame   0x000000000000173c       0x40 d:/csgcc/bin/../lib/gcc/mips-sde-elf/4.3.2/../../../../mips-sde-elf/lib/el/sof\libc.a(lib_a-printf.o)
 .debug_frame   0x000000000000177c       0x3c d:/csgcc/bin/../lib/gcc/mips-sde-elf/4.3.2/../../../../mips-sde-elf/lib/el/sof\libc.a(lib_a-putc.o)
 .debug_frame   0x00000000000017b8       0x28 d:/csgcc/bin/../lib/gcc/mips-sde-elf/4.3.2/../../../../mips-sde-elf/lib/el/sof\libc.a(lib_a-realloc.o)
 .debug_frame   0x00000000000017e0       0x38 d:/csgcc/bin/../lib/gcc/mips-sde-elf/4.3.2/../../../../mips-sde-elf/lib/el/sof\libc.a(lib_a-reallocr.o)
 .debug_frame   0x0000000000001818       0x2c d:/csgcc/bin/../lib/gcc/mips-sde-elf/4.3.2/../../../../mips-sde-elf/lib/el/sof\libc.a(lib_a-sbrkr.o)
 .debug_frame   0x0000000000001844       0xbc d:/csgcc/bin/../lib/gcc/mips-sde-elf/4.3.2/../../../../mips-sde-elf/lib/el/sof\libc.a(lib_a-signal.o)
 .debug_frame   0x0000000000001900       0x44 d:/csgcc/bin/../lib/gcc/mips-sde-elf/4.3.2/../../../../mips-sde-elf/lib/el/sof\libc.a(lib_a-signalr.o)
 .debug_frame   0x0000000000001944       0x20 d:/csgcc/bin/../lib/gcc/mips-sde-elf/4.3.2/../../../../mips-sde-elf/lib/el/sof\libc.a(lib_a-strcmp.o)
 .debug_frame   0x0000000000001964       0x20 d:/csgcc/bin/../lib/gcc/mips-sde-elf/4.3.2/../../../../mips-sde-elf/lib/el/sof\libc.a(lib_a-strcpy.o)
 .debug_frame   0x0000000000001984       0x20 d:/csgcc/bin/../lib/gcc/mips-sde-elf/4.3.2/../../../../mips-sde-elf/lib/el/sof\libc.a(lib_a-strncmp.o)
 .debug_frame   0x00000000000019a4       0x64 d:/csgcc/bin/../lib/gcc/mips-sde-elf/4.3.2/../../../../mips-sde-elf/lib/el/sof\libc.a(lib_a-vfprintf.o)
 .debug_frame   0x0000000000001a08       0x3c d:/csgcc/bin/../lib/gcc/mips-sde-elf/4.3.2/../../../../mips-sde-elf/lib/el/sof\libc.a(lib_a-wbuf.o)
 .debug_frame   0x0000000000001a44       0x2c d:/csgcc/bin/../lib/gcc/mips-sde-elf/4.3.2/../../../../mips-sde-elf/lib/el/sof\libc.a(lib_a-wsetup.o)
 .debug_frame   0x0000000000001a70       0x28 d:/csgcc/bin/../lib/gcc/mips-sde-elf/4.3.2/../../../../mips-sde-elf/lib/el/sof\libc.a(lib_a-asctime.o)
 .debug_frame   0x0000000000001a98       0x2c d:/csgcc/bin/../lib/gcc/mips-sde-elf/4.3.2/../../../../mips-sde-elf/lib/el/sof\libc.a(lib_a-asctime_r.o)
 .debug_frame   0x0000000000001ac4       0x60 d:/csgcc/bin/../lib/gcc/mips-sde-elf/4.3.2/../../../../mips-sde-elf/lib/el/sof\libc.a(lib_a-dtoa.o)
 .debug_frame   0x0000000000001b24       0x48 d:/csgcc/bin/../lib/gcc/mips-sde-elf/4.3.2/../../../../mips-sde-elf/lib/el/sof\libc.a(lib_a-fflush.o)
 .debug_frame   0x0000000000001b6c       0x8c d:/csgcc/bin/../lib/gcc/mips-sde-elf/4.3.2/../../../../mips-sde-elf/lib/el/sof\libc.a(lib_a-findfp.o)
 .debug_frame   0x0000000000001bf8       0x4c d:/csgcc/bin/../lib/gcc/mips-sde-elf/4.3.2/../../../../mips-sde-elf/lib/el/sof\libc.a(lib_a-freer.o)
 .debug_frame   0x0000000000001c44       0x58 d:/csgcc/bin/../lib/gcc/mips-sde-elf/4.3.2/../../../../mips-sde-elf/lib/el/sof\libc.a(lib_a-fwalk.o)
 .debug_frame   0x0000000000001c9c       0x20 d:/csgcc/bin/../lib/gcc/mips-sde-elf/4.3.2/../../../../mips-sde-elf/lib/el/sof\libc.a(lib_a-gettzinfo.o)
 .debug_frame   0x0000000000001cbc       0x6c d:/csgcc/bin/../lib/gcc/mips-sde-elf/4.3.2/../../../../mips-sde-elf/lib/el/sof\libc.a(lib_a-locale.o)
 .debug_frame   0x0000000000001d28       0x30 d:/csgcc/bin/../lib/gcc/mips-sde-elf/4.3.2/../../../../mips-sde-elf/lib/el/sof\libc.a(lib_a-makebuf.o)
 .debug_frame   0x0000000000001d58      0x208 d:/csgcc/bin/../lib/gcc/mips-sde-elf/4.3.2/../../../../mips-sde-elf/lib/el/sof\libc.a(lib_a-mprec.o)
 .debug_frame   0x0000000000001f60       0x6c d:/csgcc/bin/../lib/gcc/mips-sde-elf/4.3.2/../../../../mips-sde-elf/lib/el/sof\libc.a(lib_a-reent.o)
 .debug_frame   0x0000000000001fcc       0x20 d:/csgcc/bin/../lib/gcc/mips-sde-elf/4.3.2/../../../../mips-sde-elf/lib/el/sof\libc.a(lib_a-s_isinfd.o)
 .debug_frame   0x0000000000001fec       0x20 d:/csgcc/bin/../lib/gcc/mips-sde-elf/4.3.2/../../../../mips-sde-elf/lib/el/sof\libc.a(lib_a-s_isnand.o)
 .debug_frame   0x000000000000200c       0x40 d:/csgcc/bin/../lib/gcc/mips-sde-elf/4.3.2/../../../../mips-sde-elf/lib/el/sof\libc.a(lib_a-sprintf.o)
 .debug_frame   0x000000000000204c       0x80 d:/csgcc/bin/../lib/gcc/mips-sde-elf/4.3.2/../../../../mips-sde-elf/lib/el/sof\libc.a(lib_a-stdio.o)
 .debug_frame   0x00000000000020cc       0x2c d:/csgcc/bin/../lib/gcc/mips-sde-elf/4.3.2/../../../../mips-sde-elf/lib/el/sof\libc.a(lib_a-writer.o)
 .debug_frame   0x00000000000020f8       0x28 d:/csgcc/bin/../lib/gcc/mips-sde-elf/4.3.2/../../../../mips-sde-elf/lib/el/sof\libc.a(lib_a-callocr.o)
 .debug_frame   0x0000000000002120       0x2c d:/csgcc/bin/../lib/gcc/mips-sde-elf/4.3.2/../../../../mips-sde-elf/lib/el/sof\libc.a(lib_a-closer.o)
 .debug_frame   0x000000000000214c       0x3c d:/csgcc/bin/../lib/gcc/mips-sde-elf/4.3.2/../../../../mips-sde-elf/lib/el/sof\libc.a(lib_a-fclose.o)
 .debug_frame   0x0000000000002188       0x2c d:/csgcc/bin/../lib/gcc/mips-sde-elf/4.3.2/../../../../mips-sde-elf/lib/el/sof\libc.a(lib_a-fstatr.o)
 .debug_frame   0x00000000000021b4       0x2c d:/csgcc/bin/../lib/gcc/mips-sde-elf/4.3.2/../../../../mips-sde-elf/lib/el/sof\libc.a(lib_a-isattyr.o)
 .debug_frame   0x00000000000021e0       0x2c d:/csgcc/bin/../lib/gcc/mips-sde-elf/4.3.2/../../../../mips-sde-elf/lib/el/sof\libc.a(lib_a-lseekr.o)
 .debug_frame   0x000000000000220c       0x2c d:/csgcc/bin/../lib/gcc/mips-sde-elf/4.3.2/../../../../mips-sde-elf/lib/el/sof\libc.a(lib_a-readr.o)
 .debug_frame   0x0000000000002238       0x28 d:/csgcc/bin/../lib/gcc/mips-sde-elf/4.3.2/../../../../mips-sde-elf/lib/el/sof\libcs3.a(start_c.o)
 .debug_frame   0x0000000000002260       0x20 d:/csgcc/bin/../lib/gcc/mips-sde-elf/4.3.2/../../../../mips-sde-elf/lib/el/sof\libcs3unhosted.a(unhosted-_exit.o)
 .debug_frame   0x0000000000002280       0x28 d:/csgcc/bin/../lib/gcc/mips-sde-elf/4.3.2/../../../../mips-sde-elf/lib/el/sof\libcs3unhosted.a(unhosted-close.o)
 .debug_frame   0x00000000000022a8       0x28 d:/csgcc/bin/../lib/gcc/mips-sde-elf/4.3.2/../../../../mips-sde-elf/lib/el/sof\libcs3unhosted.a(unhosted-fstat.o)
 .debug_frame   0x00000000000022d0       0x28 d:/csgcc/bin/../lib/gcc/mips-sde-elf/4.3.2/../../../../mips-sde-elf/lib/el/sof\libcs3unhosted.a(unhosted-isatty.o)
 .debug_frame   0x00000000000022f8       0x28 d:/csgcc/bin/../lib/gcc/mips-sde-elf/4.3.2/../../../../mips-sde-elf/lib/el/sof\libcs3unhosted.a(unhosted-lseek.o)
 .debug_frame   0x0000000000002320       0x28 d:/csgcc/bin/../lib/gcc/mips-sde-elf/4.3.2/../../../../mips-sde-elf/lib/el/sof\libcs3unhosted.a(unhosted-open.o)
 .debug_frame   0x0000000000002348       0x28 d:/csgcc/bin/../lib/gcc/mips-sde-elf/4.3.2/../../../../mips-sde-elf/lib/el/sof\libcs3unhosted.a(unhosted-sbrk.o)
 .debug_frame   0x0000000000002370       0x20 d:/csgcc/bin/../lib/gcc/mips-sde-elf/4.3.2/../../../../mips-sde-elf/lib/el/sof\libcs3unhosted.a(unhosted-getpid.o)
 .debug_frame   0x0000000000002390       0x28 d:/csgcc/bin/../lib/gcc/mips-sde-elf/4.3.2/../../../../mips-sde-elf/lib/el/sof\libcs3unhosted.a(unhosted-kill.o)
 .debug_frame   0x00000000000023b8       0x20 d:/csgcc/bin/../lib/gcc/mips-sde-elf/4.3.2/el/sof\libgcc.a(_udivdi3.o)
 .debug_frame   0x00000000000023d8       0x20 d:/csgcc/bin/../lib/gcc/mips-sde-elf/4.3.2/el/sof\libgcc.a(_umoddi3.o)
 .debug_frame   0x00000000000023f8       0x74 d:/csgcc/bin/../lib/gcc/mips-sde-elf/4.3.2/el/sof\libgcc.a(_addsub_df.o)
 .debug_frame   0x000000000000246c       0x2c d:/csgcc/bin/../lib/gcc/mips-sde-elf/4.3.2/el/sof\libgcc.a(_mul_df.o)
 .debug_frame   0x0000000000002498       0x2c d:/csgcc/bin/../lib/gcc/mips-sde-elf/4.3.2/el/sof\libgcc.a(_div_df.o)
 .debug_frame   0x00000000000024c4       0x2c d:/csgcc/bin/../lib/gcc/mips-sde-elf/4.3.2/el/sof\libgcc.a(_eq_df.o)
 .debug_frame   0x00000000000024f0       0x2c d:/csgcc/bin/../lib/gcc/mips-sde-elf/4.3.2/el/sof\libgcc.a(_ne_df.o)
 .debug_frame   0x000000000000251c       0x2c d:/csgcc/bin/../lib/gcc/mips-sde-elf/4.3.2/el/sof\libgcc.a(_gt_df.o)
 .debug_frame   0x0000000000002548       0x2c d:/csgcc/bin/../lib/gcc/mips-sde-elf/4.3.2/el/sof\libgcc.a(_ge_df.o)
 .debug_frame   0x0000000000002574       0x2c d:/csgcc/bin/../lib/gcc/mips-sde-elf/4.3.2/el/sof\libgcc.a(_lt_df.o)
 .debug_frame   0x00000000000025a0       0x2c d:/csgcc/bin/../lib/gcc/mips-sde-elf/4.3.2/el/sof\libgcc.a(_si_to_df.o)
 .debug_frame   0x00000000000025cc       0x28 d:/csgcc/bin/../lib/gcc/mips-sde-elf/4.3.2/el/sof\libgcc.a(_df_to_si.o)
 .debug_frame   0x00000000000025f4       0x30 d:/csgcc/bin/../lib/gcc/mips-sde-elf/4.3.2/el/sof\libgcc.a(_usi_to_df.o)
 .debug_frame   0x0000000000002624       0x20 d:/csgcc/bin/../lib/gcc/mips-sde-elf/4.3.2/el/sof\libgcc.a(_lshrdi3.o)
 .debug_frame   0x0000000000002644       0x20 d:/csgcc/bin/../lib/gcc/mips-sde-elf/4.3.2/el/sof\libgcc.a(_ashldi3.o)
 .debug_frame   0x0000000000002664       0x20 d:/csgcc/bin/../lib/gcc/mips-sde-elf/4.3.2/el/sof\libgcc.a(_ucmpdi2.o)
 .debug_frame   0x0000000000002684       0x34 d:/csgcc/bin/../lib/gcc/mips-sde-elf/4.3.2/el/sof\libgcc.a(_pack_df.o)
 .debug_frame   0x00000000000026b8       0x20 d:/csgcc/bin/../lib/gcc/mips-sde-elf/4.3.2/el/sof\libgcc.a(_unpack_df.o)
 .debug_frame   0x00000000000026d8       0x20 d:/csgcc/bin/../lib/gcc/mips-sde-elf/4.3.2/el/sof\libgcc.a(_fpcmp_parts_df.o)
 .debug_frame   0x00000000000026f8       0x20 d:/csgcc/bin/../lib/gcc/mips-sde-elf/4.3.2/../../../../mips-sde-elf/lib/el/sof\libc.a(lib_a-errno.o)
 .debug_frame   0x0000000000002718       0x2c d:/csgcc/bin/../lib/gcc/mips-sde-elf/4.3.2/../../../../mips-sde-elf/lib/el/sof\libc.a(lib_a-init.o)

.debug_str      0x0000000000000000     0x716a
 *(.debug_str)
 .debug_str     0x0000000000000000       0x4f obj/pic32mx_cfg_init.o
                                         0x5c (size before relaxing)
 .debug_str     0x000000000000004f      0x51a obj/CPP_Demo.o
                                        0x591 (size before relaxing)
 .debug_str     0x0000000000000569      0x42a obj/DRN_PIC32MX_UART1.o
                                        0x78d (size before relaxing)
 .debug_str     0x0000000000000993       0x68 obj/DRN_PIC32MX_CS_glue.o
                                        0x422 (size before relaxing)
 .debug_str     0x00000000000009fb       0xc0 obj/PIC32MX_time.o
                                        0x539 (size before relaxing)
 .debug_str     0x0000000000000abb       0x46 obj/int_enable_interrupts_lib.o
                                         0xa6 (size before relaxing)
 .debug_str     0x0000000000000b01       0x48 obj/int_disable_interrupts_lib.o
                                         0xa8 (size before relaxing)
 .debug_str     0x0000000000000b49       0x48 obj/int_restore_interrupts_lib.o
                                         0xa8 (size before relaxing)
 .debug_str     0x0000000000000b91       0x40 obj/pcache.o
                                         0x91 (size before relaxing)
 .debug_str     0x0000000000000bd1      0x776 d:/csgcc/bin/../lib/gcc/mips-sde-elf/4.3.2/../../../../mips-sde-elf/lib/el/sof\libstdc++.a(eh_personality.o)
                                        0x925 (size before relaxing)
 .debug_str     0x0000000000001347      0x196 d:/csgcc/bin/../lib/gcc/mips-sde-elf/4.3.2/../../../../mips-sde-elf/lib/el/sof\libstdc++.a(eh_terminate.o)
                                        0x5c3 (size before relaxing)
 .debug_str     0x00000000000014dd       0xa7 d:/csgcc/bin/../lib/gcc/mips-sde-elf/4.3.2/../../../../mips-sde-elf/lib/el/sof\libstdc++.a(eh_throw.o)
                                        0x4d6 (size before relaxing)
 .debug_str     0x0000000000001584       0x51 d:/csgcc/bin/../lib/gcc/mips-sde-elf/4.3.2/../../../../mips-sde-elf/lib/el/sof\libstdc++.a(eh_unex_handler.o)
                                        0x3c0 (size before relaxing)
 .debug_str     0x00000000000015d5      0x28d d:/csgcc/bin/../lib/gcc/mips-sde-elf/4.3.2/../../../../mips-sde-elf/lib/el/sof\libstdc++.a(eh_alloc.o)
                                        0x728 (size before relaxing)
 .debug_str     0x0000000000001862       0x5e d:/csgcc/bin/../lib/gcc/mips-sde-elf/4.3.2/../../../../mips-sde-elf/lib/el/sof\libstdc++.a(eh_call.o)
                                        0x4b0 (size before relaxing)
 .debug_str     0x00000000000018c0       0xe2 d:/csgcc/bin/../lib/gcc/mips-sde-elf/4.3.2/../../../../mips-sde-elf/lib/el/sof\libstdc++.a(eh_catch.o)
                                        0x57f (size before relaxing)
 .debug_str     0x00000000000019a2      0x18b d:/csgcc/bin/../lib/gcc/mips-sde-elf/4.3.2/../../../../mips-sde-elf/lib/el/sof\libstdc++.a(eh_exception.o)
                                        0x270 (size before relaxing)
 .debug_str     0x0000000000001b2d       0x75 d:/csgcc/bin/../lib/gcc/mips-sde-elf/4.3.2/../../../../mips-sde-elf/lib/el/sof\libstdc++.a(eh_globals.o)
                                        0x4c5 (size before relaxing)
 .debug_str     0x0000000000001ba2       0x51 d:/csgcc/bin/../lib/gcc/mips-sde-elf/4.3.2/../../../../mips-sde-elf/lib/el/sof\libstdc++.a(eh_term_handler.o)
                                        0x3be (size before relaxing)
 .debug_str     0x0000000000001bf3       0x59 d:/csgcc/bin/../lib/gcc/mips-sde-elf/4.3.2/../../../../mips-sde-elf/lib/el/sof\libstdc++.a(pure.o)
                                        0x18a (size before relaxing)
 .debug_str     0x0000000000001c4c      0x3f0 d:/csgcc/bin/../lib/gcc/mips-sde-elf/4.3.2/../../../../mips-sde-elf/lib/el/sof\libstdc++.a(si_class_type_info.o)
                                        0x4f1 (size before relaxing)
 .debug_str     0x000000000000203c      0x1bd d:/csgcc/bin/../lib/gcc/mips-sde-elf/4.3.2/../../../../mips-sde-elf/lib/el/sof\libstdc++.a(tinfo.o)
                                        0x2ff (size before relaxing)
 .debug_str     0x00000000000021f9      0x475 d:/csgcc/bin/../lib/gcc/mips-sde-elf/4.3.2/../../../../mips-sde-elf/lib/el/sof\libstdc++.a(vterminate.o)
                                        0x6ed (size before relaxing)
 .debug_str     0x000000000000266e     0x1018 d:/csgcc/bin/../lib/gcc/mips-sde-elf/4.3.2/../../../../mips-sde-elf/lib/el/sof\libstdc++.a(cp-demangle.o)
                                       0x121b (size before relaxing)
 .debug_str     0x0000000000003686      0x286 d:/csgcc/bin/../lib/gcc/mips-sde-elf/4.3.2/../../../../mips-sde-elf/lib/el/sof\libstdc++.a(class_type_info.o)
                                        0x570 (size before relaxing)
 .debug_str     0x000000000000390c       0x5f d:/csgcc/bin/../lib/gcc/mips-sde-elf/4.3.2/../../../../mips-sde-elf/lib/el/sof\libstdc++.a(del_op.o)
                                        0x1ee (size before relaxing)
 .debug_str     0x000000000000396b       0x66 d:/csgcc/bin/../lib/gcc/mips-sde-elf/4.3.2/../../../../mips-sde-elf/lib/el/sof\libstdc++.a(eh_type.o)
                                        0x3e2 (size before relaxing)
 .debug_str     0x00000000000039d1     0x119f d:/csgcc/bin/../lib/gcc/mips-sde-elf/4.3.2/el/sof\libgcc.a(unwind-dw2.o)
                                       0x1546 (size before relaxing)
 .debug_str     0x0000000000004b70      0x3f5 d:/csgcc/bin/../lib/gcc/mips-sde-elf/4.3.2/el/sof\libgcc.a(unwind-dw2-fde.o)
                                        0x687 (size before relaxing)
 .debug_str     0x0000000000004f65       0x4b d:/csgcc/bin/../lib/gcc/mips-sde-elf/4.3.2/../../../../mips-sde-elf/lib/el/sof\libc.a(lib_a-abort.o)
                                         0xe0 (size before relaxing)
 .debug_str     0x0000000000004fb0       0x49 d:/csgcc/bin/../lib/gcc/mips-sde-elf/4.3.2/../../../../mips-sde-elf/lib/el/sof\libc.a(lib_a-ctime.o)
                                         0xeb (size before relaxing)
 .debug_str     0x0000000000004ff9       0x5e d:/csgcc/bin/../lib/gcc/mips-sde-elf/4.3.2/../../../../mips-sde-elf/lib/el/sof\libc.a(lib_a-fputc.o)
                                        0x479 (size before relaxing)
 .debug_str     0x0000000000005057       0x8f d:/csgcc/bin/../lib/gcc/mips-sde-elf/4.3.2/../../../../mips-sde-elf/lib/el/sof\libc.a(lib_a-fputs.o)
                                        0x4b7 (size before relaxing)
 .debug_str     0x00000000000050e6       0x71 d:/csgcc/bin/../lib/gcc/mips-sde-elf/4.3.2/../../../../mips-sde-elf/lib/el/sof\libc.a(lib_a-fvwrite.o)
                                        0x4c2 (size before relaxing)
 .debug_str     0x0000000000005157       0x64 d:/csgcc/bin/../lib/gcc/mips-sde-elf/4.3.2/../../../../mips-sde-elf/lib/el/sof\libc.a(lib_a-impure.o)
                                        0x479 (size before relaxing)
 .debug_str     0x00000000000051bb       0x63 d:/csgcc/bin/../lib/gcc/mips-sde-elf/4.3.2/../../../../mips-sde-elf/lib/el/sof\libc.a(lib_a-lcltime.o)
                                        0x4cb (size before relaxing)
 .debug_str     0x000000000000521e       0x53 d:/csgcc/bin/../lib/gcc/mips-sde-elf/4.3.2/../../../../mips-sde-elf/lib/el/sof\libc.a(lib_a-lcltime_r.o)
                                        0x14f (size before relaxing)
 .debug_str     0x0000000000005271       0x52 d:/csgcc/bin/../lib/gcc/mips-sde-elf/4.3.2/../../../../mips-sde-elf/lib/el/sof\libc.a(lib_a-malloc.o)
                                        0x47a (size before relaxing)
 .debug_str     0x00000000000052c3      0x213 d:/csgcc/bin/../lib/gcc/mips-sde-elf/4.3.2/../../../../mips-sde-elf/lib/el/sof\libc.a(lib_a-mallocr.o)
                                        0x64f (size before relaxing)
 .debug_str     0x00000000000054d6       0x56 d:/csgcc/bin/../lib/gcc/mips-sde-elf/4.3.2/../../../../mips-sde-elf/lib/el/sof\libc.a(lib_a-memchr.o)
                                         0xf9 (size before relaxing)
 .debug_str     0x000000000000552c       0x4d d:/csgcc/bin/../lib/gcc/mips-sde-elf/4.3.2/../../../../mips-sde-elf/lib/el/sof\libc.a(lib_a-memcmp.o)
                                         0xe9 (size before relaxing)
 .debug_str     0x0000000000005579       0x62 d:/csgcc/bin/../lib/gcc/mips-sde-elf/4.3.2/../../../../mips-sde-elf/lib/el/sof\libc.a(lib_a-memcpy.o)
                                         0x9a (size before relaxing)
 .debug_str     0x00000000000055db       0x58 d:/csgcc/bin/../lib/gcc/mips-sde-elf/4.3.2/../../../../mips-sde-elf/lib/el/sof\libc.a(lib_a-memmove.o)
                                        0x104 (size before relaxing)
 .debug_str     0x0000000000005633       0x53 d:/csgcc/bin/../lib/gcc/mips-sde-elf/4.3.2/../../../../mips-sde-elf/lib/el/sof\libc.a(lib_a-memset.o)
                                         0xef (size before relaxing)
 .debug_str     0x0000000000005686      0x126 d:/csgcc/bin/../lib/gcc/mips-sde-elf/4.3.2/../../../../mips-sde-elf/lib/el/sof\libc.a(lib_a-mktm_r.o)
                                        0x23a (size before relaxing)
 .debug_str     0x00000000000057ac       0x63 d:/csgcc/bin/../lib/gcc/mips-sde-elf/4.3.2/../../../../mips-sde-elf/lib/el/sof\libc.a(lib_a-mlock.o)
                                        0x46c (size before relaxing)
 .debug_str     0x000000000000580f       0x70 d:/csgcc/bin/../lib/gcc/mips-sde-elf/4.3.2/../../../../mips-sde-elf/lib/el/sof\libc.a(lib_a-printf.o)
                                        0x494 (size before relaxing)
 .debug_str     0x000000000000587f       0x4b d:/csgcc/bin/../lib/gcc/mips-sde-elf/4.3.2/../../../../mips-sde-elf/lib/el/sof\libc.a(lib_a-putc.o)
                                        0x471 (size before relaxing)
 .debug_str     0x00000000000058ca       0x4f d:/csgcc/bin/../lib/gcc/mips-sde-elf/4.3.2/../../../../mips-sde-elf/lib/el/sof\libc.a(lib_a-realloc.o)
                                        0x472 (size before relaxing)
 .debug_str     0x0000000000005919       0x4e d:/csgcc/bin/../lib/gcc/mips-sde-elf/4.3.2/../../../../mips-sde-elf/lib/el/sof\libc.a(lib_a-reallocr.o)
                                        0x521 (size before relaxing)
 .debug_str     0x0000000000005967       0x51 d:/csgcc/bin/../lib/gcc/mips-sde-elf/4.3.2/../../../../mips-sde-elf/lib/el/sof\libc.a(lib_a-sbrkr.o)
                                        0x46a (size before relaxing)
 .debug_str     0x00000000000059b8       0xa0 d:/csgcc/bin/../lib/gcc/mips-sde-elf/4.3.2/../../../../mips-sde-elf/lib/el/sof\libc.a(lib_a-signal.o)
                                        0x4cb (size before relaxing)
 .debug_str     0x0000000000005a58       0x58 d:/csgcc/bin/../lib/gcc/mips-sde-elf/4.3.2/../../../../mips-sde-elf/lib/el/sof\libc.a(lib_a-signalr.o)
                                        0x467 (size before relaxing)
 .debug_str     0x0000000000005ab0       0x58 d:/csgcc/bin/../lib/gcc/mips-sde-elf/4.3.2/../../../../mips-sde-elf/lib/el/sof\libc.a(lib_a-strcmp.o)
                                         0xed (size before relaxing)
 .debug_str     0x0000000000005b08       0x4d d:/csgcc/bin/../lib/gcc/mips-sde-elf/4.3.2/../../../../mips-sde-elf/lib/el/sof\libc.a(lib_a-strcpy.o)
                                         0xec (size before relaxing)
 .debug_str     0x0000000000005b55       0x4c d:/csgcc/bin/../lib/gcc/mips-sde-elf/4.3.2/../../../../mips-sde-elf/lib/el/sof\libc.a(lib_a-strlen.o)
                                         0xe1 (size before relaxing)
 .debug_str     0x0000000000005ba1       0x4f d:/csgcc/bin/../lib/gcc/mips-sde-elf/4.3.2/../../../../mips-sde-elf/lib/el/sof\libc.a(lib_a-strncmp.o)
                                         0xeb (size before relaxing)
 .debug_str     0x0000000000005bf0       0x56 d:/csgcc/bin/../lib/gcc/mips-sde-elf/4.3.2/../../../../mips-sde-elf/lib/el/sof\libc.a(lib_a-tzvars.o)
                                         0xf5 (size before relaxing)
 .debug_str     0x0000000000005c46      0x166 d:/csgcc/bin/../lib/gcc/mips-sde-elf/4.3.2/../../../../mips-sde-elf/lib/el/sof\libc.a(lib_a-vfprintf.o)
                                        0x653 (size before relaxing)
 .debug_str     0x0000000000005dac       0x55 d:/csgcc/bin/../lib/gcc/mips-sde-elf/4.3.2/../../../../mips-sde-elf/lib/el/sof\libc.a(lib_a-wbuf.o)
                                        0x46f (size before relaxing)
 .debug_str     0x0000000000005e01       0x51 d:/csgcc/bin/../lib/gcc/mips-sde-elf/4.3.2/../../../../mips-sde-elf/lib/el/sof\libc.a(lib_a-wsetup.o)
                                        0x46b (size before relaxing)
 .debug_str     0x0000000000005e52       0x4d d:/csgcc/bin/../lib/gcc/mips-sde-elf/4.3.2/../../../../mips-sde-elf/lib/el/sof\libc.a(lib_a-asctime.o)
                                        0x4c2 (size before relaxing)
 .debug_str     0x0000000000005e9f       0x63 d:/csgcc/bin/../lib/gcc/mips-sde-elf/4.3.2/../../../../mips-sde-elf/lib/el/sof\libc.a(lib_a-asctime_r.o)
                                        0x15f (size before relaxing)
 .debug_str     0x0000000000005f02      0x102 d:/csgcc/bin/../lib/gcc/mips-sde-elf/4.3.2/../../../../mips-sde-elf/lib/el/sof\libc.a(lib_a-dtoa.o)
                                        0x55f (size before relaxing)
 .debug_str     0x0000000000006004       0x56 d:/csgcc/bin/../lib/gcc/mips-sde-elf/4.3.2/../../../../mips-sde-elf/lib/el/sof\libc.a(lib_a-fflush.o)
                                        0x491 (size before relaxing)
 .debug_str     0x000000000000605a       0x71 d:/csgcc/bin/../lib/gcc/mips-sde-elf/4.3.2/../../../../mips-sde-elf/lib/el/sof\libc.a(lib_a-findfp.o)
                                        0x4ab (size before relaxing)
 .debug_str     0x00000000000060cb       0x3c d:/csgcc/bin/../lib/gcc/mips-sde-elf/4.3.2/../../../../mips-sde-elf/lib/el/sof\libc.a(lib_a-freer.o)
                                        0x5a1 (size before relaxing)
 .debug_str     0x0000000000006107       0x69 d:/csgcc/bin/../lib/gcc/mips-sde-elf/4.3.2/../../../../mips-sde-elf/lib/el/sof\libc.a(lib_a-fwalk.o)
                                        0x494 (size before relaxing)
 .debug_str     0x0000000000006170       0x53 d:/csgcc/bin/../lib/gcc/mips-sde-elf/4.3.2/../../../../mips-sde-elf/lib/el/sof\libc.a(lib_a-gettzinfo.o)
                                        0x15c (size before relaxing)
 .debug_str     0x00000000000061c3      0x1a4 d:/csgcc/bin/../lib/gcc/mips-sde-elf/4.3.2/../../../../mips-sde-elf/lib/el/sof\libc.a(lib_a-locale.o)
                                        0x607 (size before relaxing)
 .debug_str     0x0000000000006367      0x127 d:/csgcc/bin/../lib/gcc/mips-sde-elf/4.3.2/../../../../mips-sde-elf/lib/el/sof\libc.a(lib_a-makebuf.o)
                                        0x565 (size before relaxing)
 .debug_str     0x000000000000648e      0x103 d:/csgcc/bin/../lib/gcc/mips-sde-elf/4.3.2/../../../../mips-sde-elf/lib/el/sof\libc.a(lib_a-mprec.o)
                                        0x56c (size before relaxing)
 .debug_str     0x0000000000006591       0x7e d:/csgcc/bin/../lib/gcc/mips-sde-elf/4.3.2/../../../../mips-sde-elf/lib/el/sof\libc.a(lib_a-reent.o)
                                        0x49e (size before relaxing)
 .debug_str     0x000000000000660f       0x5b d:/csgcc/bin/../lib/gcc/mips-sde-elf/4.3.2/../../../../mips-sde-elf/lib/el/sof\libc.a(lib_a-s_isinfd.o)
                                        0x109 (size before relaxing)
 .debug_str     0x000000000000666a       0x51 d:/csgcc/bin/../lib/gcc/mips-sde-elf/4.3.2/../../../../mips-sde-elf/lib/el/sof\libc.a(lib_a-s_isnand.o)
                                        0x109 (size before relaxing)
 .debug_str     0x00000000000066bb       0x59 d:/csgcc/bin/../lib/gcc/mips-sde-elf/4.3.2/../../../../mips-sde-elf/lib/el/sof\libc.a(lib_a-sprintf.o)
                                        0x49c (size before relaxing)
 .debug_str     0x0000000000006714       0x6d d:/csgcc/bin/../lib/gcc/mips-sde-elf/4.3.2/../../../../mips-sde-elf/lib/el/sof\libc.a(lib_a-stdio.o)
                                        0x490 (size before relaxing)
 .debug_str     0x0000000000006781       0x57 d:/csgcc/bin/../lib/gcc/mips-sde-elf/4.3.2/../../../../mips-sde-elf/lib/el/sof\libc.a(lib_a-writer.o)
                                        0x46d (size before relaxing)
 .debug_str     0x00000000000067d8       0x19 d:/csgcc/bin/../lib/gcc/mips-sde-elf/4.3.2/../../../../mips-sde-elf/lib/el/sof\libc.a(lib_a-callocr.o)
                                        0x4a0 (size before relaxing)
 .debug_str     0x00000000000067f1       0x4e d:/csgcc/bin/../lib/gcc/mips-sde-elf/4.3.2/../../../../mips-sde-elf/lib/el/sof\libc.a(lib_a-closer.o)
                                        0x45d (size before relaxing)
 .debug_str     0x000000000000683f       0x4f d:/csgcc/bin/../lib/gcc/mips-sde-elf/4.3.2/../../../../mips-sde-elf/lib/el/sof\libc.a(lib_a-fclose.o)
                                        0x475 (size before relaxing)
 .debug_str     0x000000000000688e       0x54 d:/csgcc/bin/../lib/gcc/mips-sde-elf/4.3.2/../../../../mips-sde-elf/lib/el/sof\libc.a(lib_a-fstatr.o)
                                        0x550 (size before relaxing)
 .debug_str     0x00000000000068e2       0x50 d:/csgcc/bin/../lib/gcc/mips-sde-elf/4.3.2/../../../../mips-sde-elf/lib/el/sof\libc.a(lib_a-isattyr.o)
                                        0x45f (size before relaxing)
 .debug_str     0x0000000000006932       0x4e d:/csgcc/bin/../lib/gcc/mips-sde-elf/4.3.2/../../../../mips-sde-elf/lib/el/sof\libc.a(lib_a-lseekr.o)
                                        0x46b (size before relaxing)
 .debug_str     0x0000000000006980       0x4c d:/csgcc/bin/../lib/gcc/mips-sde-elf/4.3.2/../../../../mips-sde-elf/lib/el/sof\libc.a(lib_a-readr.o)
                                        0x46b (size before relaxing)
 .debug_str     0x00000000000069cc       0xb1 d:/csgcc/bin/../lib/gcc/mips-sde-elf/4.3.2/../../../../mips-sde-elf/lib/el/sof\libcs3.a(start_c.o)
                                        0x140 (size before relaxing)
 .debug_str     0x0000000000006a7d       0x3c d:/csgcc/bin/../lib/gcc/mips-sde-elf/4.3.2/../../../../mips-sde-elf/lib/el/sof\libcs3unhosted.a(unhosted-_exit.o)
                                         0x4f (size before relaxing)
 .debug_str     0x0000000000006ab9       0x49 d:/csgcc/bin/../lib/gcc/mips-sde-elf/4.3.2/../../../../mips-sde-elf/lib/el/sof\libcs3unhosted.a(unhosted-close.o)
                                         0xe4 (size before relaxing)
 .debug_str     0x0000000000006b02       0x49 d:/csgcc/bin/../lib/gcc/mips-sde-elf/4.3.2/../../../../mips-sde-elf/lib/el/sof\libcs3unhosted.a(unhosted-fstat.o)
                                        0x1d1 (size before relaxing)
 .debug_str     0x0000000000006b4b       0x4b d:/csgcc/bin/../lib/gcc/mips-sde-elf/4.3.2/../../../../mips-sde-elf/lib/el/sof\libcs3unhosted.a(unhosted-isatty.o)
                                         0xe7 (size before relaxing)
 .debug_str     0x0000000000006b96       0x49 d:/csgcc/bin/../lib/gcc/mips-sde-elf/4.3.2/../../../../mips-sde-elf/lib/el/sof\libcs3unhosted.a(unhosted-lseek.o)
                                         0xff (size before relaxing)
 .debug_str     0x0000000000006bdf       0x4d d:/csgcc/bin/../lib/gcc/mips-sde-elf/4.3.2/../../../../mips-sde-elf/lib/el/sof\libcs3unhosted.a(unhosted-open.o)
                                         0xed (size before relaxing)
 .debug_str     0x0000000000006c2c       0x63 d:/csgcc/bin/../lib/gcc/mips-sde-elf/4.3.2/../../../../mips-sde-elf/lib/el/sof\libcs3unhosted.a(unhosted-sbrk.o)
                                        0x109 (size before relaxing)
 .debug_str     0x0000000000006c8f       0x37 d:/csgcc/bin/../lib/gcc/mips-sde-elf/4.3.2/../../../../mips-sde-elf/lib/el/sof\libcs3unhosted.a(unhosted-getpid.o)
                                         0x43 (size before relaxing)
 .debug_str     0x0000000000006cc6       0x33 d:/csgcc/bin/../lib/gcc/mips-sde-elf/4.3.2/../../../../mips-sde-elf/lib/el/sof\libcs3unhosted.a(unhosted-kill.o)
                                         0x3f (size before relaxing)
 .debug_str     0x0000000000006cf9       0xb2 d:/csgcc/bin/../lib/gcc/mips-sde-elf/4.3.2/el/sof\libgcc.a(_udivdi3.o)
                                        0x1b3 (size before relaxing)
 .debug_str     0x0000000000006dab        0xa d:/csgcc/bin/../lib/gcc/mips-sde-elf/4.3.2/el/sof\libgcc.a(_umoddi3.o)
                                        0x1b3 (size before relaxing)
 .debug_str     0x0000000000006db5      0x13d d:/csgcc/bin/../lib/gcc/mips-sde-elf/4.3.2/el/sof\libgcc.a(_addsub_df.o)
                                        0x24b (size before relaxing)
 .debug_str     0x0000000000006ef2       0x40 d:/csgcc/bin/../lib/gcc/mips-sde-elf/4.3.2/el/sof\libgcc.a(_mul_df.o)
                                        0x21d (size before relaxing)
 .debug_str     0x0000000000006f32       0x35 d:/csgcc/bin/../lib/gcc/mips-sde-elf/4.3.2/el/sof\libgcc.a(_div_df.o)
                                        0x20d (size before relaxing)
 .debug_str     0x0000000000006f67       0x10 d:/csgcc/bin/../lib/gcc/mips-sde-elf/4.3.2/el/sof\libgcc.a(_eq_df.o)
                                        0x1db (size before relaxing)
 .debug_str     0x0000000000006f77        0x8 d:/csgcc/bin/../lib/gcc/mips-sde-elf/4.3.2/el/sof\libgcc.a(_ne_df.o)
                                        0x1db (size before relaxing)
 .debug_str     0x0000000000006f7f        0x8 d:/csgcc/bin/../lib/gcc/mips-sde-elf/4.3.2/el/sof\libgcc.a(_gt_df.o)
                                        0x1db (size before relaxing)
 .debug_str     0x0000000000006f87        0x8 d:/csgcc/bin/../lib/gcc/mips-sde-elf/4.3.2/el/sof\libgcc.a(_ge_df.o)
                                        0x1db (size before relaxing)
 .debug_str     0x0000000000006f8f        0x8 d:/csgcc/bin/../lib/gcc/mips-sde-elf/4.3.2/el/sof\libgcc.a(_lt_df.o)
                                        0x1db (size before relaxing)
 .debug_str     0x0000000000006f97       0x18 d:/csgcc/bin/../lib/gcc/mips-sde-elf/4.3.2/el/sof\libgcc.a(_si_to_df.o)
                                        0x1ba (size before relaxing)
 .debug_str     0x0000000000006faf        0xa d:/csgcc/bin/../lib/gcc/mips-sde-elf/4.3.2/el/sof\libgcc.a(_df_to_si.o)
                                        0x1e3 (size before relaxing)
 .debug_str     0x0000000000000000      0x17f d:/csgcc/bin/../lib/gcc/mips-sde-elf/4.3.2/el/sof\libgcc.a(_thenan_df.o)
 .debug_str     0x0000000000006fb9       0x14 d:/csgcc/bin/../lib/gcc/mips-sde-elf/4.3.2/el/sof\libgcc.a(_usi_to_df.o)
                                        0x1b6 (size before relaxing)
 .debug_str     0x0000000000006fcd       0x23 d:/csgcc/bin/../lib/gcc/mips-sde-elf/4.3.2/el/sof\libgcc.a(_lshrdi3.o)
                                        0x199 (size before relaxing)
 .debug_str     0x0000000000006ff0        0xa d:/csgcc/bin/../lib/gcc/mips-sde-elf/4.3.2/el/sof\libgcc.a(_ashldi3.o)
                                        0x199 (size before relaxing)
 .debug_str     0x0000000000006ffa       0x1a d:/csgcc/bin/../lib/gcc/mips-sde-elf/4.3.2/el/sof\libgcc.a(_ucmpdi2.o)
                                        0x188 (size before relaxing)
 .debug_str     0x0000000000007014       0x10 d:/csgcc/bin/../lib/gcc/mips-sde-elf/4.3.2/el/sof\libgcc.a(_pack_df.o)
                                        0x1e2 (size before relaxing)
 .debug_str     0x0000000000007024        0xb d:/csgcc/bin/../lib/gcc/mips-sde-elf/4.3.2/el/sof\libgcc.a(_unpack_df.o)
                                        0x1c4 (size before relaxing)
 .debug_str     0x000000000000702f       0x10 d:/csgcc/bin/../lib/gcc/mips-sde-elf/4.3.2/el/sof\libgcc.a(_fpcmp_parts_df.o)
                                        0x1a2 (size before relaxing)
 .debug_str     0x000000000000703f       0x4c d:/csgcc/bin/../lib/gcc/mips-sde-elf/4.3.2/../../../../mips-sde-elf/lib/el/sof\libc.a(lib_a-errno.o)
                                        0x461 (size before relaxing)
 .debug_str     0x000000000000708b       0xa2 d:/csgcc/bin/../lib/gcc/mips-sde-elf/4.3.2/../../../../mips-sde-elf/lib/el/sof\libc.a(lib_a-init.o)
                                        0x144 (size before relaxing)
 .debug_str     0x000000000000712d       0x3d d:/csgcc/bin/../lib/gcc/mips-sde-elf/4.3.2/../../../../mips-sde-elf/lib/el/sof\libcs3.a(heap.o)
                                         0x67 (size before relaxing)

.debug_loc      0x0000000000000000    0x10ec3
 *(.debug_loc)
 .debug_loc     0x0000000000000000       0xd9 obj/CPP_Demo.o
 .debug_loc     0x00000000000000d9      0x1ae obj/DRN_PIC32MX_UART1.o
 .debug_loc     0x0000000000000287       0xac obj/DRN_PIC32MX_CS_glue.o
 .debug_loc     0x0000000000000333       0xd7 obj/PIC32MX_time.o
 .debug_loc     0x000000000000040a       0x2b obj/int_enable_interrupts_lib.o
 .debug_loc     0x0000000000000435       0x2b obj/int_disable_interrupts_lib.o
 .debug_loc     0x0000000000000460       0x2b obj/int_restore_interrupts_lib.o
 .debug_loc     0x000000000000048b       0x56 obj/pcache.o
 .debug_loc     0x00000000000004e1      0xe20 d:/csgcc/bin/../lib/gcc/mips-sde-elf/4.3.2/../../../../mips-sde-elf/lib/el/sof\libstdc++.a(eh_personality.o)
 .debug_loc     0x0000000000001301       0xc8 d:/csgcc/bin/../lib/gcc/mips-sde-elf/4.3.2/../../../../mips-sde-elf/lib/el/sof\libstdc++.a(eh_terminate.o)
 .debug_loc     0x00000000000013c9      0x134 d:/csgcc/bin/../lib/gcc/mips-sde-elf/4.3.2/../../../../mips-sde-elf/lib/el/sof\libstdc++.a(eh_throw.o)
 .debug_loc     0x00000000000014fd      0x13c d:/csgcc/bin/../lib/gcc/mips-sde-elf/4.3.2/../../../../mips-sde-elf/lib/el/sof\libstdc++.a(eh_alloc.o)
 .debug_loc     0x0000000000001639       0x3d d:/csgcc/bin/../lib/gcc/mips-sde-elf/4.3.2/../../../../mips-sde-elf/lib/el/sof\libstdc++.a(eh_call.o)
 .debug_loc     0x0000000000001676      0x1e4 d:/csgcc/bin/../lib/gcc/mips-sde-elf/4.3.2/../../../../mips-sde-elf/lib/el/sof\libstdc++.a(eh_catch.o)
 .debug_loc     0x000000000000185a       0xc8 d:/csgcc/bin/../lib/gcc/mips-sde-elf/4.3.2/../../../../mips-sde-elf/lib/el/sof\libstdc++.a(eh_exception.o)
 .debug_loc     0x0000000000001922       0x1f d:/csgcc/bin/../lib/gcc/mips-sde-elf/4.3.2/../../../../mips-sde-elf/lib/el/sof\libstdc++.a(pure.o)
 .debug_loc     0x0000000000001941      0x30c d:/csgcc/bin/../lib/gcc/mips-sde-elf/4.3.2/../../../../mips-sde-elf/lib/el/sof\libstdc++.a(si_class_type_info.o)
 .debug_loc     0x0000000000001c4d       0x32 d:/csgcc/bin/../lib/gcc/mips-sde-elf/4.3.2/../../../../mips-sde-elf/lib/el/sof\libstdc++.a(tinfo.o)
 .debug_loc     0x0000000000001c7f      0x107 d:/csgcc/bin/../lib/gcc/mips-sde-elf/4.3.2/../../../../mips-sde-elf/lib/el/sof\libstdc++.a(vterminate.o)
 .debug_loc     0x0000000000001d86     0x2520 d:/csgcc/bin/../lib/gcc/mips-sde-elf/4.3.2/../../../../mips-sde-elf/lib/el/sof\libstdc++.a(cp-demangle.o)
 .debug_loc     0x00000000000042a6      0x221 d:/csgcc/bin/../lib/gcc/mips-sde-elf/4.3.2/../../../../mips-sde-elf/lib/el/sof\libstdc++.a(class_type_info.o)
 .debug_loc     0x00000000000044c7       0x3d d:/csgcc/bin/../lib/gcc/mips-sde-elf/4.3.2/../../../../mips-sde-elf/lib/el/sof\libstdc++.a(del_op.o)
 .debug_loc     0x0000000000004504       0x32 d:/csgcc/bin/../lib/gcc/mips-sde-elf/4.3.2/../../../../mips-sde-elf/lib/el/sof\libstdc++.a(eh_type.o)
 .debug_loc     0x0000000000004536     0x304d d:/csgcc/bin/../lib/gcc/mips-sde-elf/4.3.2/el/sof\libgcc.a(unwind-dw2.o)
 .debug_loc     0x0000000000007583     0x14fb d:/csgcc/bin/../lib/gcc/mips-sde-elf/4.3.2/el/sof\libgcc.a(unwind-dw2-fde.o)
 .debug_loc     0x0000000000008a7e       0x1f d:/csgcc/bin/../lib/gcc/mips-sde-elf/4.3.2/../../../../mips-sde-elf/lib/el/sof\libc.a(lib_a-abort.o)
 .debug_loc     0x0000000000008a9d       0x32 d:/csgcc/bin/../lib/gcc/mips-sde-elf/4.3.2/../../../../mips-sde-elf/lib/el/sof\libc.a(lib_a-ctime.o)
 .debug_loc     0x0000000000008acf       0xaa d:/csgcc/bin/../lib/gcc/mips-sde-elf/4.3.2/../../../../mips-sde-elf/lib/el/sof\libc.a(lib_a-fputc.o)
 .debug_loc     0x0000000000008b79       0x9f d:/csgcc/bin/../lib/gcc/mips-sde-elf/4.3.2/../../../../mips-sde-elf/lib/el/sof\libc.a(lib_a-fputs.o)
 .debug_loc     0x0000000000008c18      0x2cb d:/csgcc/bin/../lib/gcc/mips-sde-elf/4.3.2/../../../../mips-sde-elf/lib/el/sof\libc.a(lib_a-fvwrite.o)
 .debug_loc     0x0000000000008ee3       0x32 d:/csgcc/bin/../lib/gcc/mips-sde-elf/4.3.2/../../../../mips-sde-elf/lib/el/sof\libc.a(lib_a-lcltime.o)
 .debug_loc     0x0000000000008f15       0x45 d:/csgcc/bin/../lib/gcc/mips-sde-elf/4.3.2/../../../../mips-sde-elf/lib/el/sof\libc.a(lib_a-lcltime_r.o)
 .debug_loc     0x0000000000008f5a       0x7a d:/csgcc/bin/../lib/gcc/mips-sde-elf/4.3.2/../../../../mips-sde-elf/lib/el/sof\libc.a(lib_a-malloc.o)
 .debug_loc     0x0000000000008fd4      0x5a2 d:/csgcc/bin/../lib/gcc/mips-sde-elf/4.3.2/../../../../mips-sde-elf/lib/el/sof\libc.a(lib_a-mallocr.o)
 .debug_loc     0x0000000000009576       0x1e d:/csgcc/bin/../lib/gcc/mips-sde-elf/4.3.2/../../../../mips-sde-elf/lib/el/sof\libc.a(lib_a-memchr.o)
 .debug_loc     0x0000000000009594       0x52 d:/csgcc/bin/../lib/gcc/mips-sde-elf/4.3.2/../../../../mips-sde-elf/lib/el/sof\libc.a(lib_a-memmove.o)
 .debug_loc     0x00000000000095e6      0x2ba d:/csgcc/bin/../lib/gcc/mips-sde-elf/4.3.2/../../../../mips-sde-elf/lib/el/sof\libc.a(lib_a-mktm_r.o)
 .debug_loc     0x00000000000098a0       0xab d:/csgcc/bin/../lib/gcc/mips-sde-elf/4.3.2/../../../../mips-sde-elf/lib/el/sof\libc.a(lib_a-printf.o)
 .debug_loc     0x000000000000994b       0xe9 d:/csgcc/bin/../lib/gcc/mips-sde-elf/4.3.2/../../../../mips-sde-elf/lib/el/sof\libc.a(lib_a-putc.o)
 .debug_loc     0x0000000000009a34       0x50 d:/csgcc/bin/../lib/gcc/mips-sde-elf/4.3.2/../../../../mips-sde-elf/lib/el/sof\libc.a(lib_a-realloc.o)
 .debug_loc     0x0000000000009a84      0x611 d:/csgcc/bin/../lib/gcc/mips-sde-elf/4.3.2/../../../../mips-sde-elf/lib/el/sof\libc.a(lib_a-reallocr.o)
 .debug_loc     0x000000000000a095       0x50 d:/csgcc/bin/../lib/gcc/mips-sde-elf/4.3.2/../../../../mips-sde-elf/lib/el/sof\libc.a(lib_a-sbrkr.o)
 .debug_loc     0x000000000000a0e5      0x2b7 d:/csgcc/bin/../lib/gcc/mips-sde-elf/4.3.2/../../../../mips-sde-elf/lib/el/sof\libc.a(lib_a-signal.o)
 .debug_loc     0x000000000000a39c       0x95 d:/csgcc/bin/../lib/gcc/mips-sde-elf/4.3.2/../../../../mips-sde-elf/lib/el/sof\libc.a(lib_a-signalr.o)
 .debug_loc     0x000000000000a431       0xac d:/csgcc/bin/../lib/gcc/mips-sde-elf/4.3.2/../../../../mips-sde-elf/lib/el/sof\libc.a(lib_a-strcmp.o)
 .debug_loc     0x000000000000a4dd       0x1e d:/csgcc/bin/../lib/gcc/mips-sde-elf/4.3.2/../../../../mips-sde-elf/lib/el/sof\libc.a(lib_a-strcpy.o)
 .debug_loc     0x000000000000a4fb     0x1568 d:/csgcc/bin/../lib/gcc/mips-sde-elf/4.3.2/../../../../mips-sde-elf/lib/el/sof\libc.a(lib_a-vfprintf.o)
 .debug_loc     0x000000000000ba63       0xde d:/csgcc/bin/../lib/gcc/mips-sde-elf/4.3.2/../../../../mips-sde-elf/lib/el/sof\libc.a(lib_a-wbuf.o)
 .debug_loc     0x000000000000bb41       0x71 d:/csgcc/bin/../lib/gcc/mips-sde-elf/4.3.2/../../../../mips-sde-elf/lib/el/sof\libc.a(lib_a-wsetup.o)
 .debug_loc     0x000000000000bbb2       0x32 d:/csgcc/bin/../lib/gcc/mips-sde-elf/4.3.2/../../../../mips-sde-elf/lib/el/sof\libc.a(lib_a-asctime.o)
 .debug_loc     0x000000000000bbe4       0x50 d:/csgcc/bin/../lib/gcc/mips-sde-elf/4.3.2/../../../../mips-sde-elf/lib/el/sof\libc.a(lib_a-asctime_r.o)
 .debug_loc     0x000000000000bc34     0x14a1 d:/csgcc/bin/../lib/gcc/mips-sde-elf/4.3.2/../../../../mips-sde-elf/lib/el/sof\libc.a(lib_a-dtoa.o)
 .debug_loc     0x000000000000d0d5      0x170 d:/csgcc/bin/../lib/gcc/mips-sde-elf/4.3.2/../../../../mips-sde-elf/lib/el/sof\libc.a(lib_a-fflush.o)
 .debug_loc     0x000000000000d245      0x19d d:/csgcc/bin/../lib/gcc/mips-sde-elf/4.3.2/../../../../mips-sde-elf/lib/el/sof\libc.a(lib_a-findfp.o)
 .debug_loc     0x000000000000d3e2      0x2e4 d:/csgcc/bin/../lib/gcc/mips-sde-elf/4.3.2/../../../../mips-sde-elf/lib/el/sof\libc.a(lib_a-freer.o)
 .debug_loc     0x000000000000d6c6      0x16f d:/csgcc/bin/../lib/gcc/mips-sde-elf/4.3.2/../../../../mips-sde-elf/lib/el/sof\libc.a(lib_a-fwalk.o)
 .debug_loc     0x000000000000d835       0xcb d:/csgcc/bin/../lib/gcc/mips-sde-elf/4.3.2/../../../../mips-sde-elf/lib/el/sof\libc.a(lib_a-locale.o)
 .debug_loc     0x000000000000d900       0xf8 d:/csgcc/bin/../lib/gcc/mips-sde-elf/4.3.2/../../../../mips-sde-elf/lib/el/sof\libc.a(lib_a-makebuf.o)
 .debug_loc     0x000000000000d9f8     0x109d d:/csgcc/bin/../lib/gcc/mips-sde-elf/4.3.2/../../../../mips-sde-elf/lib/el/sof\libc.a(lib_a-mprec.o)
 .debug_loc     0x000000000000ea95      0x1a5 d:/csgcc/bin/../lib/gcc/mips-sde-elf/4.3.2/../../../../mips-sde-elf/lib/el/sof\libc.a(lib_a-reent.o)
 .debug_loc     0x000000000000ec3a       0xb5 d:/csgcc/bin/../lib/gcc/mips-sde-elf/4.3.2/../../../../mips-sde-elf/lib/el/sof\libc.a(lib_a-sprintf.o)
 .debug_loc     0x000000000000ecef      0x207 d:/csgcc/bin/../lib/gcc/mips-sde-elf/4.3.2/../../../../mips-sde-elf/lib/el/sof\libc.a(lib_a-stdio.o)
 .debug_loc     0x000000000000eef6       0x76 d:/csgcc/bin/../lib/gcc/mips-sde-elf/4.3.2/../../../../mips-sde-elf/lib/el/sof\libc.a(lib_a-writer.o)
 .debug_loc     0x000000000000ef6c       0xbd d:/csgcc/bin/../lib/gcc/mips-sde-elf/4.3.2/../../../../mips-sde-elf/lib/el/sof\libc.a(lib_a-callocr.o)
 .debug_loc     0x000000000000f029       0x50 d:/csgcc/bin/../lib/gcc/mips-sde-elf/4.3.2/../../../../mips-sde-elf/lib/el/sof\libc.a(lib_a-closer.o)
 .debug_loc     0x000000000000f079       0xd9 d:/csgcc/bin/../lib/gcc/mips-sde-elf/4.3.2/../../../../mips-sde-elf/lib/el/sof\libc.a(lib_a-fclose.o)
 .debug_loc     0x000000000000f152       0x63 d:/csgcc/bin/../lib/gcc/mips-sde-elf/4.3.2/../../../../mips-sde-elf/lib/el/sof\libc.a(lib_a-fstatr.o)
 .debug_loc     0x000000000000f1b5       0x50 d:/csgcc/bin/../lib/gcc/mips-sde-elf/4.3.2/../../../../mips-sde-elf/lib/el/sof\libc.a(lib_a-isattyr.o)
 .debug_loc     0x000000000000f205       0x76 d:/csgcc/bin/../lib/gcc/mips-sde-elf/4.3.2/../../../../mips-sde-elf/lib/el/sof\libc.a(lib_a-lseekr.o)
 .debug_loc     0x000000000000f27b       0x76 d:/csgcc/bin/../lib/gcc/mips-sde-elf/4.3.2/../../../../mips-sde-elf/lib/el/sof\libc.a(lib_a-readr.o)
 .debug_loc     0x000000000000f2f1      0x104 d:/csgcc/bin/../lib/gcc/mips-sde-elf/4.3.2/../../../../mips-sde-elf/lib/el/sof\libcs3.a(start_c.o)
 .debug_loc     0x000000000000f3f5       0x32 d:/csgcc/bin/../lib/gcc/mips-sde-elf/4.3.2/../../../../mips-sde-elf/lib/el/sof\libcs3unhosted.a(unhosted-close.o)
 .debug_loc     0x000000000000f427       0x45 d:/csgcc/bin/../lib/gcc/mips-sde-elf/4.3.2/../../../../mips-sde-elf/lib/el/sof\libcs3unhosted.a(unhosted-fstat.o)
 .debug_loc     0x000000000000f46c       0x32 d:/csgcc/bin/../lib/gcc/mips-sde-elf/4.3.2/../../../../mips-sde-elf/lib/el/sof\libcs3unhosted.a(unhosted-isatty.o)
 .debug_loc     0x000000000000f49e       0x58 d:/csgcc/bin/../lib/gcc/mips-sde-elf/4.3.2/../../../../mips-sde-elf/lib/el/sof\libcs3unhosted.a(unhosted-lseek.o)
 .debug_loc     0x000000000000f4f6       0x45 d:/csgcc/bin/../lib/gcc/mips-sde-elf/4.3.2/../../../../mips-sde-elf/lib/el/sof\libcs3unhosted.a(unhosted-open.o)
 .debug_loc     0x000000000000f53b       0x76 d:/csgcc/bin/../lib/gcc/mips-sde-elf/4.3.2/../../../../mips-sde-elf/lib/el/sof\libcs3unhosted.a(unhosted-sbrk.o)
 .debug_loc     0x000000000000f5b1       0x45 d:/csgcc/bin/../lib/gcc/mips-sde-elf/4.3.2/../../../../mips-sde-elf/lib/el/sof\libcs3unhosted.a(unhosted-kill.o)
 .debug_loc     0x000000000000f5f6      0x5ac d:/csgcc/bin/../lib/gcc/mips-sde-elf/4.3.2/el/sof\libgcc.a(_udivdi3.o)
 .debug_loc     0x000000000000fba2      0x537 d:/csgcc/bin/../lib/gcc/mips-sde-elf/4.3.2/el/sof\libgcc.a(_umoddi3.o)
 .debug_loc     0x00000000000100d9      0x2e8 d:/csgcc/bin/../lib/gcc/mips-sde-elf/4.3.2/el/sof\libgcc.a(_addsub_df.o)
 .debug_loc     0x00000000000103c1      0x1cc d:/csgcc/bin/../lib/gcc/mips-sde-elf/4.3.2/el/sof\libgcc.a(_mul_df.o)
 .debug_loc     0x000000000001058d      0x1b4 d:/csgcc/bin/../lib/gcc/mips-sde-elf/4.3.2/el/sof\libgcc.a(_div_df.o)
 .debug_loc     0x0000000000010741       0x50 d:/csgcc/bin/../lib/gcc/mips-sde-elf/4.3.2/el/sof\libgcc.a(_eq_df.o)
 .debug_loc     0x0000000000010791       0x50 d:/csgcc/bin/../lib/gcc/mips-sde-elf/4.3.2/el/sof\libgcc.a(_ne_df.o)
 .debug_loc     0x00000000000107e1       0x50 d:/csgcc/bin/../lib/gcc/mips-sde-elf/4.3.2/el/sof\libgcc.a(_gt_df.o)
 .debug_loc     0x0000000000010831       0x50 d:/csgcc/bin/../lib/gcc/mips-sde-elf/4.3.2/el/sof\libgcc.a(_ge_df.o)
 .debug_loc     0x0000000000010881       0x50 d:/csgcc/bin/../lib/gcc/mips-sde-elf/4.3.2/el/sof\libgcc.a(_lt_df.o)
 .debug_loc     0x00000000000108d1       0x84 d:/csgcc/bin/../lib/gcc/mips-sde-elf/4.3.2/el/sof\libgcc.a(_si_to_df.o)
 .debug_loc     0x0000000000010955       0x60 d:/csgcc/bin/../lib/gcc/mips-sde-elf/4.3.2/el/sof\libgcc.a(_df_to_si.o)
 .debug_loc     0x00000000000109b5       0x51 d:/csgcc/bin/../lib/gcc/mips-sde-elf/4.3.2/el/sof\libgcc.a(_usi_to_df.o)
 .debug_loc     0x0000000000010a06       0x5e d:/csgcc/bin/../lib/gcc/mips-sde-elf/4.3.2/el/sof\libgcc.a(_lshrdi3.o)
 .debug_loc     0x0000000000010a64       0x86 d:/csgcc/bin/../lib/gcc/mips-sde-elf/4.3.2/el/sof\libgcc.a(_ashldi3.o)
 .debug_loc     0x0000000000010aea       0x50 d:/csgcc/bin/../lib/gcc/mips-sde-elf/4.3.2/el/sof\libgcc.a(_ucmpdi2.o)
 .debug_loc     0x0000000000010b3a      0x242 d:/csgcc/bin/../lib/gcc/mips-sde-elf/4.3.2/el/sof\libgcc.a(_pack_df.o)
 .debug_loc     0x0000000000010d7c       0xd9 d:/csgcc/bin/../lib/gcc/mips-sde-elf/4.3.2/el/sof\libgcc.a(_unpack_df.o)
 .debug_loc     0x0000000000010e55       0x29 d:/csgcc/bin/../lib/gcc/mips-sde-elf/4.3.2/el/sof\libgcc.a(_fpcmp_parts_df.o)
 .debug_loc     0x0000000000010e7e       0x45 d:/csgcc/bin/../lib/gcc/mips-sde-elf/4.3.2/../../../../mips-sde-elf/lib/el/sof\libc.a(lib_a-init.o)

.debug_macinfo
 *(.debug_macinfo)

.debug_weaknames
 *(.debug_weaknames)

.debug_funcnames
 *(.debug_funcnames)

.debug_typenames
 *(.debug_typenames)

.debug_varnames
 *(.debug_varnames)
OUTPUT(CPP_Demo.elf elf32-tradlittlemips)

.reginfo        0x0000000000000000       0x18
 .reginfo       0x0000000000000000       0x18 d:/csgcc/bin/../lib/gcc/mips-sde-elf/4.3.2/el/sof/crti.o

.pdr            0x0000000000000000     0x2880
 .pdr           0x0000000000000000        0x0 d:/csgcc/bin/../lib/gcc/mips-sde-elf/4.3.2/el/sof/crti.o
 .pdr           0x0000000000000000        0x0 d:/csgcc/bin/../lib/gcc/mips-sde-elf/4.3.2/el/sof/crtbegin.o
 .pdr           0x0000000000000000        0x0 obj/pic32mx_cfg_init.o
 .pdr           0x0000000000000000        0x0 obj/PIC32MX-reset.o
 .pdr           0x0000000000000000       0x40 obj/ISRwrapper.o
 .pdr           0x0000000000000040       0xa0 obj/CPP_Demo.o
 .pdr           0x00000000000000e0      0x140 obj/DRN_PIC32MX_UART1.o
 .pdr           0x0000000000000220       0x80 obj/DRN_PIC32MX_CS_glue.o
 .pdr           0x00000000000002a0       0xa0 obj/PIC32MX_time.o
 .pdr           0x0000000000000340       0x20 obj/int_enable_interrupts_lib.o
 .pdr           0x0000000000000360       0x20 obj/int_disable_interrupts_lib.o
 .pdr           0x0000000000000380       0x20 obj/int_restore_interrupts_lib.o
 .pdr           0x00000000000003a0        0x0 obj/p32mx440f256h.o
 .pdr           0x00000000000003a0       0x40 obj/pcache.o
 .pdr           0x00000000000003e0      0x120 d:/csgcc/bin/../lib/gcc/mips-sde-elf/4.3.2/../../../../mips-sde-elf/lib/el/sof\libstdc++.a(eh_personality.o)
 .pdr           0x0000000000000500       0xc0 d:/csgcc/bin/../lib/gcc/mips-sde-elf/4.3.2/../../../../mips-sde-elf/lib/el/sof\libstdc++.a(eh_terminate.o)
 .pdr           0x00000000000005c0       0x60 d:/csgcc/bin/../lib/gcc/mips-sde-elf/4.3.2/../../../../mips-sde-elf/lib/el/sof\libstdc++.a(eh_throw.o)
 .pdr           0x0000000000000620        0x0 d:/csgcc/bin/../lib/gcc/mips-sde-elf/4.3.2/../../../../mips-sde-elf/lib/el/sof\libstdc++.a(eh_unex_handler.o)
 .pdr           0x0000000000000620       0x60 d:/csgcc/bin/../lib/gcc/mips-sde-elf/4.3.2/../../../../mips-sde-elf/lib/el/sof\libstdc++.a(eh_alloc.o)
 .pdr           0x0000000000000680       0x20 d:/csgcc/bin/../lib/gcc/mips-sde-elf/4.3.2/../../../../mips-sde-elf/lib/el/sof\libstdc++.a(eh_call.o)
 .pdr           0x00000000000006a0       0x80 d:/csgcc/bin/../lib/gcc/mips-sde-elf/4.3.2/../../../../mips-sde-elf/lib/el/sof\libstdc++.a(eh_catch.o)
 .pdr           0x0000000000000720      0x1c0 d:/csgcc/bin/../lib/gcc/mips-sde-elf/4.3.2/../../../../mips-sde-elf/lib/el/sof\libstdc++.a(eh_exception.o)
 .pdr           0x00000000000008e0       0x40 d:/csgcc/bin/../lib/gcc/mips-sde-elf/4.3.2/../../../../mips-sde-elf/lib/el/sof\libstdc++.a(eh_globals.o)
 .pdr           0x0000000000000920        0x0 d:/csgcc/bin/../lib/gcc/mips-sde-elf/4.3.2/../../../../mips-sde-elf/lib/el/sof\libstdc++.a(eh_term_handler.o)
 .pdr           0x0000000000000920       0x20 d:/csgcc/bin/../lib/gcc/mips-sde-elf/4.3.2/../../../../mips-sde-elf/lib/el/sof\libstdc++.a(pure.o)
 .pdr           0x0000000000000940       0xc0 d:/csgcc/bin/../lib/gcc/mips-sde-elf/4.3.2/../../../../mips-sde-elf/lib/el/sof\libstdc++.a(si_class_type_info.o)
 .pdr           0x0000000000000a00       0xe0 d:/csgcc/bin/../lib/gcc/mips-sde-elf/4.3.2/../../../../mips-sde-elf/lib/el/sof\libstdc++.a(tinfo.o)
 .pdr           0x0000000000000ae0       0x20 d:/csgcc/bin/../lib/gcc/mips-sde-elf/4.3.2/../../../../mips-sde-elf/lib/el/sof\libstdc++.a(vterminate.o)
 .pdr           0x0000000000000b00      0x3c0 d:/csgcc/bin/../lib/gcc/mips-sde-elf/4.3.2/../../../../mips-sde-elf/lib/el/sof\libstdc++.a(cp-demangle.o)
 .pdr           0x0000000000000ec0      0x100 d:/csgcc/bin/../lib/gcc/mips-sde-elf/4.3.2/../../../../mips-sde-elf/lib/el/sof\libstdc++.a(class_type_info.o)
 .pdr           0x0000000000000fc0       0x20 d:/csgcc/bin/../lib/gcc/mips-sde-elf/4.3.2/../../../../mips-sde-elf/lib/el/sof\libstdc++.a(del_op.o)
 .pdr           0x0000000000000fe0       0x20 d:/csgcc/bin/../lib/gcc/mips-sde-elf/4.3.2/../../../../mips-sde-elf/lib/el/sof\libstdc++.a(eh_type.o)
 .pdr           0x0000000000001000      0x3e0 d:/csgcc/bin/../lib/gcc/mips-sde-elf/4.3.2/el/sof\libgcc.a(unwind-dw2.o)
 .pdr           0x00000000000013e0      0x2e0 d:/csgcc/bin/../lib/gcc/mips-sde-elf/4.3.2/el/sof\libgcc.a(unwind-dw2-fde.o)
 .pdr           0x00000000000016c0        0x0 d:/csgcc/bin/../lib/gcc/mips-sde-elf/4.3.2/el/sof/crtend.o
 .pdr           0x00000000000016c0        0x0 d:/csgcc/bin/../lib/gcc/mips-sde-elf/4.3.2/el/sof/crtn.o
 .pdr           0x00000000000016c0       0x20 d:/csgcc/bin/../lib/gcc/mips-sde-elf/4.3.2/../../../../mips-sde-elf/lib/el/sof\libc.a(lib_a-abort.o)
 .pdr           0x00000000000016e0       0x20 d:/csgcc/bin/../lib/gcc/mips-sde-elf/4.3.2/../../../../mips-sde-elf/lib/el/sof\libc.a(lib_a-ctime.o)
 .pdr           0x0000000000001700       0x40 d:/csgcc/bin/../lib/gcc/mips-sde-elf/4.3.2/../../../../mips-sde-elf/lib/el/sof\libc.a(lib_a-fputc.o)
 .pdr           0x0000000000001740       0x40 d:/csgcc/bin/../lib/gcc/mips-sde-elf/4.3.2/../../../../mips-sde-elf/lib/el/sof\libc.a(lib_a-fputs.o)
 .pdr           0x0000000000001780       0x20 d:/csgcc/bin/../lib/gcc/mips-sde-elf/4.3.2/../../../../mips-sde-elf/lib/el/sof\libc.a(lib_a-fvwrite.o)
 .pdr           0x00000000000017a0        0x0 d:/csgcc/bin/../lib/gcc/mips-sde-elf/4.3.2/../../../../mips-sde-elf/lib/el/sof\libc.a(lib_a-impure.o)
 .pdr           0x00000000000017a0       0x20 d:/csgcc/bin/../lib/gcc/mips-sde-elf/4.3.2/../../../../mips-sde-elf/lib/el/sof\libc.a(lib_a-lcltime.o)
 .pdr           0x00000000000017c0       0x20 d:/csgcc/bin/../lib/gcc/mips-sde-elf/4.3.2/../../../../mips-sde-elf/lib/el/sof\libc.a(lib_a-lcltime_r.o)
 .pdr           0x00000000000017e0       0x40 d:/csgcc/bin/../lib/gcc/mips-sde-elf/4.3.2/../../../../mips-sde-elf/lib/el/sof\libc.a(lib_a-malloc.o)
 .pdr           0x0000000000001820       0x20 d:/csgcc/bin/../lib/gcc/mips-sde-elf/4.3.2/../../../../mips-sde-elf/lib/el/sof\libc.a(lib_a-mallocr.o)
 .pdr           0x0000000000001840       0x20 d:/csgcc/bin/../lib/gcc/mips-sde-elf/4.3.2/../../../../mips-sde-elf/lib/el/sof\libc.a(lib_a-memchr.o)
 .pdr           0x0000000000001860       0x20 d:/csgcc/bin/../lib/gcc/mips-sde-elf/4.3.2/../../../../mips-sde-elf/lib/el/sof\libc.a(lib_a-memcmp.o)
 .pdr           0x0000000000001880       0x20 d:/csgcc/bin/../lib/gcc/mips-sde-elf/4.3.2/../../../../mips-sde-elf/lib/el/sof\libc.a(lib_a-memcpy.o)
 .pdr           0x00000000000018a0       0x20 d:/csgcc/bin/../lib/gcc/mips-sde-elf/4.3.2/../../../../mips-sde-elf/lib/el/sof\libc.a(lib_a-memmove.o)
 .pdr           0x00000000000018c0       0x20 d:/csgcc/bin/../lib/gcc/mips-sde-elf/4.3.2/../../../../mips-sde-elf/lib/el/sof\libc.a(lib_a-memset.o)
 .pdr           0x00000000000018e0       0x40 d:/csgcc/bin/../lib/gcc/mips-sde-elf/4.3.2/../../../../mips-sde-elf/lib/el/sof\libc.a(lib_a-mktm_r.o)
 .pdr           0x0000000000001920       0x40 d:/csgcc/bin/../lib/gcc/mips-sde-elf/4.3.2/../../../../mips-sde-elf/lib/el/sof\libc.a(lib_a-mlock.o)
 .pdr           0x0000000000001960       0x40 d:/csgcc/bin/../lib/gcc/mips-sde-elf/4.3.2/../../../../mips-sde-elf/lib/el/sof\libc.a(lib_a-printf.o)
 .pdr           0x00000000000019a0       0x40 d:/csgcc/bin/../lib/gcc/mips-sde-elf/4.3.2/../../../../mips-sde-elf/lib/el/sof\libc.a(lib_a-putc.o)
 .pdr           0x00000000000019e0       0x20 d:/csgcc/bin/../lib/gcc/mips-sde-elf/4.3.2/../../../../mips-sde-elf/lib/el/sof\libc.a(lib_a-realloc.o)
 .pdr           0x0000000000001a00       0x20 d:/csgcc/bin/../lib/gcc/mips-sde-elf/4.3.2/../../../../mips-sde-elf/lib/el/sof\libc.a(lib_a-reallocr.o)
 .pdr           0x0000000000001a20       0x20 d:/csgcc/bin/../lib/gcc/mips-sde-elf/4.3.2/../../../../mips-sde-elf/lib/el/sof\libc.a(lib_a-sbrkr.o)
 .pdr           0x0000000000001a40      0x100 d:/csgcc/bin/../lib/gcc/mips-sde-elf/4.3.2/../../../../mips-sde-elf/lib/el/sof\libc.a(lib_a-signal.o)
 .pdr           0x0000000000001b40       0x40 d:/csgcc/bin/../lib/gcc/mips-sde-elf/4.3.2/../../../../mips-sde-elf/lib/el/sof\libc.a(lib_a-signalr.o)
 .pdr           0x0000000000001b80       0x20 d:/csgcc/bin/../lib/gcc/mips-sde-elf/4.3.2/../../../../mips-sde-elf/lib/el/sof\libc.a(lib_a-strcmp.o)
 .pdr           0x0000000000001ba0       0x20 d:/csgcc/bin/../lib/gcc/mips-sde-elf/4.3.2/../../../../mips-sde-elf/lib/el/sof\libc.a(lib_a-strcpy.o)
 .pdr           0x0000000000001bc0       0x20 d:/csgcc/bin/../lib/gcc/mips-sde-elf/4.3.2/../../../../mips-sde-elf/lib/el/sof\libc.a(lib_a-strlen.o)
 .pdr           0x0000000000001be0       0x20 d:/csgcc/bin/../lib/gcc/mips-sde-elf/4.3.2/../../../../mips-sde-elf/lib/el/sof\libc.a(lib_a-strncmp.o)
 .pdr           0x0000000000001c00        0x0 d:/csgcc/bin/../lib/gcc/mips-sde-elf/4.3.2/../../../../mips-sde-elf/lib/el/sof\libc.a(lib_a-tzvars.o)
 .pdr           0x0000000000001c00       0x60 d:/csgcc/bin/../lib/gcc/mips-sde-elf/4.3.2/../../../../mips-sde-elf/lib/el/sof\libc.a(lib_a-vfprintf.o)
 .pdr           0x0000000000001c60       0x40 d:/csgcc/bin/../lib/gcc/mips-sde-elf/4.3.2/../../../../mips-sde-elf/lib/el/sof\libc.a(lib_a-wbuf.o)
 .pdr           0x0000000000001ca0       0x20 d:/csgcc/bin/../lib/gcc/mips-sde-elf/4.3.2/../../../../mips-sde-elf/lib/el/sof\libc.a(lib_a-wsetup.o)
 .pdr           0x0000000000001cc0       0x20 d:/csgcc/bin/../lib/gcc/mips-sde-elf/4.3.2/../../../../mips-sde-elf/lib/el/sof\libc.a(lib_a-asctime.o)
 .pdr           0x0000000000001ce0       0x20 d:/csgcc/bin/../lib/gcc/mips-sde-elf/4.3.2/../../../../mips-sde-elf/lib/el/sof\libc.a(lib_a-asctime_r.o)
 .pdr           0x0000000000001d00       0x40 d:/csgcc/bin/../lib/gcc/mips-sde-elf/4.3.2/../../../../mips-sde-elf/lib/el/sof\libc.a(lib_a-dtoa.o)
 .pdr           0x0000000000001d40       0x40 d:/csgcc/bin/../lib/gcc/mips-sde-elf/4.3.2/../../../../mips-sde-elf/lib/el/sof\libc.a(lib_a-fflush.o)
 .pdr           0x0000000000001d80       0xa0 d:/csgcc/bin/../lib/gcc/mips-sde-elf/4.3.2/../../../../mips-sde-elf/lib/el/sof\libc.a(lib_a-findfp.o)
 .pdr           0x0000000000001e20       0x40 d:/csgcc/bin/../lib/gcc/mips-sde-elf/4.3.2/../../../../mips-sde-elf/lib/el/sof\libc.a(lib_a-freer.o)
 .pdr           0x0000000000001e60       0x40 d:/csgcc/bin/../lib/gcc/mips-sde-elf/4.3.2/../../../../mips-sde-elf/lib/el/sof\libc.a(lib_a-fwalk.o)
 .pdr           0x0000000000001ea0       0x20 d:/csgcc/bin/../lib/gcc/mips-sde-elf/4.3.2/../../../../mips-sde-elf/lib/el/sof\libc.a(lib_a-gettzinfo.o)
 .pdr           0x0000000000001ec0       0xa0 d:/csgcc/bin/../lib/gcc/mips-sde-elf/4.3.2/../../../../mips-sde-elf/lib/el/sof\libc.a(lib_a-locale.o)
 .pdr           0x0000000000001f60       0x20 d:/csgcc/bin/../lib/gcc/mips-sde-elf/4.3.2/../../../../mips-sde-elf/lib/el/sof\libc.a(lib_a-makebuf.o)
 .pdr           0x0000000000001f80      0x260 d:/csgcc/bin/../lib/gcc/mips-sde-elf/4.3.2/../../../../mips-sde-elf/lib/el/sof\libc.a(lib_a-mprec.o)
 .pdr           0x00000000000021e0       0x60 d:/csgcc/bin/../lib/gcc/mips-sde-elf/4.3.2/../../../../mips-sde-elf/lib/el/sof\libc.a(lib_a-reent.o)
 .pdr           0x0000000000002240       0x20 d:/csgcc/bin/../lib/gcc/mips-sde-elf/4.3.2/../../../../mips-sde-elf/lib/el/sof\libc.a(lib_a-s_isinfd.o)
 .pdr           0x0000000000002260       0x20 d:/csgcc/bin/../lib/gcc/mips-sde-elf/4.3.2/../../../../mips-sde-elf/lib/el/sof\libc.a(lib_a-s_isnand.o)
 .pdr           0x0000000000002280       0x40 d:/csgcc/bin/../lib/gcc/mips-sde-elf/4.3.2/../../../../mips-sde-elf/lib/el/sof\libc.a(lib_a-sprintf.o)
 .pdr           0x00000000000022c0       0x80 d:/csgcc/bin/../lib/gcc/mips-sde-elf/4.3.2/../../../../mips-sde-elf/lib/el/sof\libc.a(lib_a-stdio.o)
 .pdr           0x0000000000002340       0x20 d:/csgcc/bin/../lib/gcc/mips-sde-elf/4.3.2/../../../../mips-sde-elf/lib/el/sof\libc.a(lib_a-writer.o)
 .pdr           0x0000000000002360       0x20 d:/csgcc/bin/../lib/gcc/mips-sde-elf/4.3.2/../../../../mips-sde-elf/lib/el/sof\libc.a(lib_a-callocr.o)
 .pdr           0x0000000000002380       0x20 d:/csgcc/bin/../lib/gcc/mips-sde-elf/4.3.2/../../../../mips-sde-elf/lib/el/sof\libc.a(lib_a-closer.o)
 .pdr           0x00000000000023a0       0x40 d:/csgcc/bin/../lib/gcc/mips-sde-elf/4.3.2/../../../../mips-sde-elf/lib/el/sof\libc.a(lib_a-fclose.o)
 .pdr           0x00000000000023e0       0x20 d:/csgcc/bin/../lib/gcc/mips-sde-elf/4.3.2/../../../../mips-sde-elf/lib/el/sof\libc.a(lib_a-fstatr.o)
 .pdr           0x0000000000002400       0x20 d:/csgcc/bin/../lib/gcc/mips-sde-elf/4.3.2/../../../../mips-sde-elf/lib/el/sof\libc.a(lib_a-isattyr.o)
 .pdr           0x0000000000002420       0x20 d:/csgcc/bin/../lib/gcc/mips-sde-elf/4.3.2/../../../../mips-sde-elf/lib/el/sof\libc.a(lib_a-lseekr.o)
 .pdr           0x0000000000002440       0x20 d:/csgcc/bin/../lib/gcc/mips-sde-elf/4.3.2/../../../../mips-sde-elf/lib/el/sof\libc.a(lib_a-readr.o)
 .pdr           0x0000000000002460       0x20 d:/csgcc/bin/../lib/gcc/mips-sde-elf/4.3.2/../../../../mips-sde-elf/lib/el/sof\libcs3.a(start_c.o)
 .pdr           0x0000000000002480       0x20 d:/csgcc/bin/../lib/gcc/mips-sde-elf/4.3.2/../../../../mips-sde-elf/lib/el/sof\libcs3unhosted.a(unhosted-_exit.o)
 .pdr           0x00000000000024a0       0x20 d:/csgcc/bin/../lib/gcc/mips-sde-elf/4.3.2/../../../../mips-sde-elf/lib/el/sof\libcs3unhosted.a(unhosted-close.o)
 .pdr           0x00000000000024c0       0x20 d:/csgcc/bin/../lib/gcc/mips-sde-elf/4.3.2/../../../../mips-sde-elf/lib/el/sof\libcs3unhosted.a(unhosted-fstat.o)
 .pdr           0x00000000000024e0       0x20 d:/csgcc/bin/../lib/gcc/mips-sde-elf/4.3.2/../../../../mips-sde-elf/lib/el/sof\libcs3unhosted.a(unhosted-isatty.o)
 .pdr           0x0000000000002500       0x20 d:/csgcc/bin/../lib/gcc/mips-sde-elf/4.3.2/../../../../mips-sde-elf/lib/el/sof\libcs3unhosted.a(unhosted-lseek.o)
 .pdr           0x0000000000002520       0x20 d:/csgcc/bin/../lib/gcc/mips-sde-elf/4.3.2/../../../../mips-sde-elf/lib/el/sof\libcs3unhosted.a(unhosted-open.o)
 .pdr           0x0000000000002540       0x20 d:/csgcc/bin/../lib/gcc/mips-sde-elf/4.3.2/../../../../mips-sde-elf/lib/el/sof\libcs3unhosted.a(unhosted-sbrk.o)
 .pdr           0x0000000000002560       0x20 d:/csgcc/bin/../lib/gcc/mips-sde-elf/4.3.2/../../../../mips-sde-elf/lib/el/sof\libcs3unhosted.a(unhosted-getpid.o)
 .pdr           0x0000000000002580       0x20 d:/csgcc/bin/../lib/gcc/mips-sde-elf/4.3.2/../../../../mips-sde-elf/lib/el/sof\libcs3unhosted.a(unhosted-kill.o)
 .pdr           0x00000000000025a0        0x0 d:/csgcc/bin/../lib/gcc/mips-sde-elf/4.3.2/../../../../mips-sde-elf/lib/el/sof\libcs3unhosted.a(start.o)
 .pdr           0x00000000000025a0       0x20 d:/csgcc/bin/../lib/gcc/mips-sde-elf/4.3.2/el/sof\libgcc.a(_udivdi3.o)
 .pdr           0x00000000000025c0       0x20 d:/csgcc/bin/../lib/gcc/mips-sde-elf/4.3.2/el/sof\libgcc.a(_umoddi3.o)
 .pdr           0x00000000000025e0       0x60 d:/csgcc/bin/../lib/gcc/mips-sde-elf/4.3.2/el/sof\libgcc.a(_addsub_df.o)
 .pdr           0x0000000000002640       0x20 d:/csgcc/bin/../lib/gcc/mips-sde-elf/4.3.2/el/sof\libgcc.a(_mul_df.o)
 .pdr           0x0000000000002660       0x20 d:/csgcc/bin/../lib/gcc/mips-sde-elf/4.3.2/el/sof\libgcc.a(_div_df.o)
 .pdr           0x0000000000002680       0x20 d:/csgcc/bin/../lib/gcc/mips-sde-elf/4.3.2/el/sof\libgcc.a(_eq_df.o)
 .pdr           0x00000000000026a0       0x20 d:/csgcc/bin/../lib/gcc/mips-sde-elf/4.3.2/el/sof\libgcc.a(_ne_df.o)
 .pdr           0x00000000000026c0       0x20 d:/csgcc/bin/../lib/gcc/mips-sde-elf/4.3.2/el/sof\libgcc.a(_gt_df.o)
 .pdr           0x00000000000026e0       0x20 d:/csgcc/bin/../lib/gcc/mips-sde-elf/4.3.2/el/sof\libgcc.a(_ge_df.o)
 .pdr           0x0000000000002700       0x20 d:/csgcc/bin/../lib/gcc/mips-sde-elf/4.3.2/el/sof\libgcc.a(_lt_df.o)
 .pdr           0x0000000000002720       0x20 d:/csgcc/bin/../lib/gcc/mips-sde-elf/4.3.2/el/sof\libgcc.a(_si_to_df.o)
 .pdr           0x0000000000002740       0x20 d:/csgcc/bin/../lib/gcc/mips-sde-elf/4.3.2/el/sof\libgcc.a(_df_to_si.o)
 .pdr           0x0000000000002760        0x0 d:/csgcc/bin/../lib/gcc/mips-sde-elf/4.3.2/el/sof\libgcc.a(_thenan_df.o)
 .pdr           0x0000000000002760       0x20 d:/csgcc/bin/../lib/gcc/mips-sde-elf/4.3.2/el/sof\libgcc.a(_usi_to_df.o)
 .pdr           0x0000000000002780       0x20 d:/csgcc/bin/../lib/gcc/mips-sde-elf/4.3.2/el/sof\libgcc.a(_lshrdi3.o)
 .pdr           0x00000000000027a0       0x20 d:/csgcc/bin/../lib/gcc/mips-sde-elf/4.3.2/el/sof\libgcc.a(_ashldi3.o)
 .pdr           0x00000000000027c0       0x20 d:/csgcc/bin/../lib/gcc/mips-sde-elf/4.3.2/el/sof\libgcc.a(_ucmpdi2.o)
 .pdr           0x00000000000027e0       0x20 d:/csgcc/bin/../lib/gcc/mips-sde-elf/4.3.2/el/sof\libgcc.a(_pack_df.o)
 .pdr           0x0000000000002800       0x20 d:/csgcc/bin/../lib/gcc/mips-sde-elf/4.3.2/el/sof\libgcc.a(_unpack_df.o)
 .pdr           0x0000000000002820       0x20 d:/csgcc/bin/../lib/gcc/mips-sde-elf/4.3.2/el/sof\libgcc.a(_fpcmp_parts_df.o)
 .pdr           0x0000000000002840       0x20 d:/csgcc/bin/../lib/gcc/mips-sde-elf/4.3.2/../../../../mips-sde-elf/lib/el/sof\libc.a(lib_a-errno.o)
 .pdr           0x0000000000002860       0x20 d:/csgcc/bin/../lib/gcc/mips-sde-elf/4.3.2/../../../../mips-sde-elf/lib/el/sof\libc.a(lib_a-init.o)
 .pdr           0x0000000000002880        0x0 d:/csgcc/bin/../lib/gcc/mips-sde-elf/4.3.2/../../../../mips-sde-elf/lib/el/sof\libcs3.a(heap.o)

.debug_ranges   0x0000000000000000     0x1318
 .debug_ranges  0x0000000000000000       0x20 d:/csgcc/bin/../lib/gcc/mips-sde-elf/4.3.2/el/sof/crti.o
 .debug_ranges  0x0000000000000020       0x20 obj/ISRwrapper.o
 .debug_ranges  0x0000000000000040       0x38 obj/CPP_Demo.o
 .debug_ranges  0x0000000000000078       0xd0 d:/csgcc/bin/../lib/gcc/mips-sde-elf/4.3.2/../../../../mips-sde-elf/lib/el/sof\libstdc++.a(eh_personality.o)
 .debug_ranges  0x0000000000000148       0x40 d:/csgcc/bin/../lib/gcc/mips-sde-elf/4.3.2/../../../../mips-sde-elf/lib/el/sof\libstdc++.a(eh_terminate.o)
 .debug_ranges  0x0000000000000188       0x28 d:/csgcc/bin/../lib/gcc/mips-sde-elf/4.3.2/../../../../mips-sde-elf/lib/el/sof\libstdc++.a(eh_throw.o)
 .debug_ranges  0x00000000000001b0       0x28 d:/csgcc/bin/../lib/gcc/mips-sde-elf/4.3.2/../../../../mips-sde-elf/lib/el/sof\libstdc++.a(eh_alloc.o)
 .debug_ranges  0x00000000000001d8       0x18 d:/csgcc/bin/../lib/gcc/mips-sde-elf/4.3.2/../../../../mips-sde-elf/lib/el/sof\libstdc++.a(eh_call.o)
 .debug_ranges  0x00000000000001f0       0x30 d:/csgcc/bin/../lib/gcc/mips-sde-elf/4.3.2/../../../../mips-sde-elf/lib/el/sof\libstdc++.a(eh_catch.o)
 .debug_ranges  0x0000000000000220       0x98 d:/csgcc/bin/../lib/gcc/mips-sde-elf/4.3.2/../../../../mips-sde-elf/lib/el/sof\libstdc++.a(eh_exception.o)
 .debug_ranges  0x00000000000002b8       0x20 d:/csgcc/bin/../lib/gcc/mips-sde-elf/4.3.2/../../../../mips-sde-elf/lib/el/sof\libstdc++.a(eh_globals.o)
 .debug_ranges  0x00000000000002d8       0x18 d:/csgcc/bin/../lib/gcc/mips-sde-elf/4.3.2/../../../../mips-sde-elf/lib/el/sof\libstdc++.a(pure.o)
 .debug_ranges  0x00000000000002f0       0x40 d:/csgcc/bin/../lib/gcc/mips-sde-elf/4.3.2/../../../../mips-sde-elf/lib/el/sof\libstdc++.a(si_class_type_info.o)
 .debug_ranges  0x0000000000000330       0x48 d:/csgcc/bin/../lib/gcc/mips-sde-elf/4.3.2/../../../../mips-sde-elf/lib/el/sof\libstdc++.a(tinfo.o)
 .debug_ranges  0x0000000000000378       0x18 d:/csgcc/bin/../lib/gcc/mips-sde-elf/4.3.2/../../../../mips-sde-elf/lib/el/sof\libstdc++.a(vterminate.o)
 .debug_ranges  0x0000000000000390      0x738 d:/csgcc/bin/../lib/gcc/mips-sde-elf/4.3.2/../../../../mips-sde-elf/lib/el/sof\libstdc++.a(cp-demangle.o)
 .debug_ranges  0x0000000000000ac8       0x68 d:/csgcc/bin/../lib/gcc/mips-sde-elf/4.3.2/../../../../mips-sde-elf/lib/el/sof\libstdc++.a(class_type_info.o)
 .debug_ranges  0x0000000000000b30       0x18 d:/csgcc/bin/../lib/gcc/mips-sde-elf/4.3.2/../../../../mips-sde-elf/lib/el/sof\libstdc++.a(del_op.o)
 .debug_ranges  0x0000000000000b48       0x18 d:/csgcc/bin/../lib/gcc/mips-sde-elf/4.3.2/../../../../mips-sde-elf/lib/el/sof\libstdc++.a(eh_type.o)
 .debug_ranges  0x0000000000000b60      0x1f8 d:/csgcc/bin/../lib/gcc/mips-sde-elf/4.3.2/el/sof\libgcc.a(unwind-dw2.o)
 .debug_ranges  0x0000000000000d58      0x218 d:/csgcc/bin/../lib/gcc/mips-sde-elf/4.3.2/el/sof\libgcc.a(unwind-dw2-fde.o)
 .debug_ranges  0x0000000000000f70       0x20 d:/csgcc/bin/../lib/gcc/mips-sde-elf/4.3.2/el/sof/crtn.o
 .debug_ranges  0x0000000000000f90       0x20 d:/csgcc/bin/../lib/gcc/mips-sde-elf/4.3.2/../../../../mips-sde-elf/lib/el/sof\libc.a(lib_a-mallocr.o)
 .debug_ranges  0x0000000000000fb0       0x28 d:/csgcc/bin/../lib/gcc/mips-sde-elf/4.3.2/../../../../mips-sde-elf/lib/el/sof\libc.a(lib_a-mktm_r.o)
 .debug_ranges  0x0000000000000fd8       0x48 d:/csgcc/bin/../lib/gcc/mips-sde-elf/4.3.2/../../../../mips-sde-elf/lib/el/sof\libc.a(lib_a-reallocr.o)
 .debug_ranges  0x0000000000001020       0xa0 d:/csgcc/bin/../lib/gcc/mips-sde-elf/4.3.2/../../../../mips-sde-elf/lib/el/sof\libc.a(lib_a-vfprintf.o)
 .debug_ranges  0x00000000000010c0       0x90 d:/csgcc/bin/../lib/gcc/mips-sde-elf/4.3.2/../../../../mips-sde-elf/lib/el/sof\libc.a(lib_a-findfp.o)
 .debug_ranges  0x0000000000001150       0x38 d:/csgcc/bin/../lib/gcc/mips-sde-elf/4.3.2/../../../../mips-sde-elf/lib/el/sof\libc.a(lib_a-fwalk.o)
 .debug_ranges  0x0000000000001188       0x68 d:/csgcc/bin/../lib/gcc/mips-sde-elf/4.3.2/../../../../mips-sde-elf/lib/el/sof\libc.a(lib_a-mprec.o)
 .debug_ranges  0x00000000000011f0       0x20 d:/csgcc/bin/../lib/gcc/mips-sde-elf/4.3.2/../../../../mips-sde-elf/lib/el/sof\libcs3.a(start_c.o)
 .debug_ranges  0x0000000000001210       0x60 d:/csgcc/bin/../lib/gcc/mips-sde-elf/4.3.2/el/sof\libgcc.a(_udivdi3.o)
 .debug_ranges  0x0000000000001270       0x70 d:/csgcc/bin/../lib/gcc/mips-sde-elf/4.3.2/el/sof\libgcc.a(_umoddi3.o)
 .debug_ranges  0x00000000000012e0       0x38 d:/csgcc/bin/../lib/gcc/mips-sde-elf/4.3.2/el/sof\libgcc.a(_mul_df.o)

.mdebug.abi32   0x0000000000000000        0x0
 .mdebug.abi32  0x0000000000000000        0x0 d:/csgcc/bin/../lib/gcc/mips-sde-elf/4.3.2/el/sof/crtbegin.o
 .mdebug.abi32  0x0000000000000000        0x0 obj/pic32mx_cfg_init.o
 .mdebug.abi32  0x0000000000000000        0x0 obj/CPP_Demo.o
 .mdebug.abi32  0x0000000000000000        0x0 obj/DRN_PIC32MX_UART1.o
 .mdebug.abi32  0x0000000000000000        0x0 obj/DRN_PIC32MX_CS_glue.o
 .mdebug.abi32  0x0000000000000000        0x0 obj/PIC32MX_time.o
 .mdebug.abi32  0x0000000000000000        0x0 obj/int_enable_interrupts_lib.o
 .mdebug.abi32  0x0000000000000000        0x0 obj/int_disable_interrupts_lib.o
 .mdebug.abi32  0x0000000000000000        0x0 obj/int_restore_interrupts_lib.o
 .mdebug.abi32  0x0000000000000000        0x0 obj/pcache.o
 .mdebug.abi32  0x0000000000000000        0x0 d:/csgcc/bin/../lib/gcc/mips-sde-elf/4.3.2/../../../../mips-sde-elf/lib/el/sof\libstdc++.a(eh_personality.o)
 .mdebug.abi32  0x0000000000000000        0x0 d:/csgcc/bin/../lib/gcc/mips-sde-elf/4.3.2/../../../../mips-sde-elf/lib/el/sof\libstdc++.a(eh_terminate.o)
 .mdebug.abi32  0x0000000000000000        0x0 d:/csgcc/bin/../lib/gcc/mips-sde-elf/4.3.2/../../../../mips-sde-elf/lib/el/sof\libstdc++.a(eh_throw.o)
 .mdebug.abi32  0x0000000000000000        0x0 d:/csgcc/bin/../lib/gcc/mips-sde-elf/4.3.2/../../../../mips-sde-elf/lib/el/sof\libstdc++.a(eh_unex_handler.o)
 .mdebug.abi32  0x0000000000000000        0x0 d:/csgcc/bin/../lib/gcc/mips-sde-elf/4.3.2/../../../../mips-sde-elf/lib/el/sof\libstdc++.a(eh_alloc.o)
 .mdebug.abi32  0x0000000000000000        0x0 d:/csgcc/bin/../lib/gcc/mips-sde-elf/4.3.2/../../../../mips-sde-elf/lib/el/sof\libstdc++.a(eh_call.o)
 .mdebug.abi32  0x0000000000000000        0x0 d:/csgcc/bin/../lib/gcc/mips-sde-elf/4.3.2/../../../../mips-sde-elf/lib/el/sof\libstdc++.a(eh_catch.o)
 .mdebug.abi32  0x0000000000000000        0x0 d:/csgcc/bin/../lib/gcc/mips-sde-elf/4.3.2/../../../../mips-sde-elf/lib/el/sof\libstdc++.a(eh_exception.o)
 .mdebug.abi32  0x0000000000000000        0x0 d:/csgcc/bin/../lib/gcc/mips-sde-elf/4.3.2/../../../../mips-sde-elf/lib/el/sof\libstdc++.a(eh_globals.o)
 .mdebug.abi32  0x0000000000000000        0x0 d:/csgcc/bin/../lib/gcc/mips-sde-elf/4.3.2/../../../../mips-sde-elf/lib/el/sof\libstdc++.a(eh_term_handler.o)
 .mdebug.abi32  0x0000000000000000        0x0 d:/csgcc/bin/../lib/gcc/mips-sde-elf/4.3.2/../../../../mips-sde-elf/lib/el/sof\libstdc++.a(pure.o)
 .mdebug.abi32  0x0000000000000000        0x0 d:/csgcc/bin/../lib/gcc/mips-sde-elf/4.3.2/../../../../mips-sde-elf/lib/el/sof\libstdc++.a(si_class_type_info.o)
 .mdebug.abi32  0x0000000000000000        0x0 d:/csgcc/bin/../lib/gcc/mips-sde-elf/4.3.2/../../../../mips-sde-elf/lib/el/sof\libstdc++.a(tinfo.o)
 .mdebug.abi32  0x0000000000000000        0x0 d:/csgcc/bin/../lib/gcc/mips-sde-elf/4.3.2/../../../../mips-sde-elf/lib/el/sof\libstdc++.a(vterminate.o)
 .mdebug.abi32  0x0000000000000000        0x0 d:/csgcc/bin/../lib/gcc/mips-sde-elf/4.3.2/../../../../mips-sde-elf/lib/el/sof\libstdc++.a(cp-demangle.o)
 .mdebug.abi32  0x0000000000000000        0x0 d:/csgcc/bin/../lib/gcc/mips-sde-elf/4.3.2/../../../../mips-sde-elf/lib/el/sof\libstdc++.a(class_type_info.o)
 .mdebug.abi32  0x0000000000000000        0x0 d:/csgcc/bin/../lib/gcc/mips-sde-elf/4.3.2/../../../../mips-sde-elf/lib/el/sof\libstdc++.a(del_op.o)
 .mdebug.abi32  0x0000000000000000        0x0 d:/csgcc/bin/../lib/gcc/mips-sde-elf/4.3.2/../../../../mips-sde-elf/lib/el/sof\libstdc++.a(eh_type.o)
 .mdebug.abi32  0x0000000000000000        0x0 d:/csgcc/bin/../lib/gcc/mips-sde-elf/4.3.2/el/sof\libgcc.a(unwind-dw2.o)
 .mdebug.abi32  0x0000000000000000        0x0 d:/csgcc/bin/../lib/gcc/mips-sde-elf/4.3.2/el/sof\libgcc.a(unwind-dw2-fde.o)
 .mdebug.abi32  0x0000000000000000        0x0 d:/csgcc/bin/../lib/gcc/mips-sde-elf/4.3.2/el/sof/crtend.o
 .mdebug.abi32  0x0000000000000000        0x0 d:/csgcc/bin/../lib/gcc/mips-sde-elf/4.3.2/../../../../mips-sde-elf/lib/el/sof\libc.a(lib_a-abort.o)
 .mdebug.abi32  0x0000000000000000        0x0 d:/csgcc/bin/../lib/gcc/mips-sde-elf/4.3.2/../../../../mips-sde-elf/lib/el/sof\libc.a(lib_a-ctime.o)
 .mdebug.abi32  0x0000000000000000        0x0 d:/csgcc/bin/../lib/gcc/mips-sde-elf/4.3.2/../../../../mips-sde-elf/lib/el/sof\libc.a(lib_a-fputc.o)
 .mdebug.abi32  0x0000000000000000        0x0 d:/csgcc/bin/../lib/gcc/mips-sde-elf/4.3.2/../../../../mips-sde-elf/lib/el/sof\libc.a(lib_a-fputs.o)
 .mdebug.abi32  0x0000000000000000        0x0 d:/csgcc/bin/../lib/gcc/mips-sde-elf/4.3.2/../../../../mips-sde-elf/lib/el/sof\libc.a(lib_a-fvwrite.o)
 .mdebug.abi32  0x0000000000000000        0x0 d:/csgcc/bin/../lib/gcc/mips-sde-elf/4.3.2/../../../../mips-sde-elf/lib/el/sof\libc.a(lib_a-impure.o)
 .mdebug.abi32  0x0000000000000000        0x0 d:/csgcc/bin/../lib/gcc/mips-sde-elf/4.3.2/../../../../mips-sde-elf/lib/el/sof\libc.a(lib_a-lcltime.o)
 .mdebug.abi32  0x0000000000000000        0x0 d:/csgcc/bin/../lib/gcc/mips-sde-elf/4.3.2/../../../../mips-sde-elf/lib/el/sof\libc.a(lib_a-lcltime_r.o)
 .mdebug.abi32  0x0000000000000000        0x0 d:/csgcc/bin/../lib/gcc/mips-sde-elf/4.3.2/../../../../mips-sde-elf/lib/el/sof\libc.a(lib_a-malloc.o)
 .mdebug.abi32  0x0000000000000000        0x0 d:/csgcc/bin/../lib/gcc/mips-sde-elf/4.3.2/../../../../mips-sde-elf/lib/el/sof\libc.a(lib_a-mallocr.o)
 .mdebug.abi32  0x0000000000000000        0x0 d:/csgcc/bin/../lib/gcc/mips-sde-elf/4.3.2/../../../../mips-sde-elf/lib/el/sof\libc.a(lib_a-memchr.o)
 .mdebug.abi32  0x0000000000000000        0x0 d:/csgcc/bin/../lib/gcc/mips-sde-elf/4.3.2/../../../../mips-sde-elf/lib/el/sof\libc.a(lib_a-memcmp.o)
 .mdebug.abi32  0x0000000000000000        0x0 d:/csgcc/bin/../lib/gcc/mips-sde-elf/4.3.2/../../../../mips-sde-elf/lib/el/sof\libc.a(lib_a-memcpy.o)
 .mdebug.abi32  0x0000000000000000        0x0 d:/csgcc/bin/../lib/gcc/mips-sde-elf/4.3.2/../../../../mips-sde-elf/lib/el/sof\libc.a(lib_a-memmove.o)
 .mdebug.abi32  0x0000000000000000        0x0 d:/csgcc/bin/../lib/gcc/mips-sde-elf/4.3.2/../../../../mips-sde-elf/lib/el/sof\libc.a(lib_a-memset.o)
 .mdebug.abi32  0x0000000000000000        0x0 d:/csgcc/bin/../lib/gcc/mips-sde-elf/4.3.2/../../../../mips-sde-elf/lib/el/sof\libc.a(lib_a-mktm_r.o)
 .mdebug.abi32  0x0000000000000000        0x0 d:/csgcc/bin/../lib/gcc/mips-sde-elf/4.3.2/../../../../mips-sde-elf/lib/el/sof\libc.a(lib_a-mlock.o)
 .mdebug.abi32  0x0000000000000000        0x0 d:/csgcc/bin/../lib/gcc/mips-sde-elf/4.3.2/../../../../mips-sde-elf/lib/el/sof\libc.a(lib_a-printf.o)
 .mdebug.abi32  0x0000000000000000        0x0 d:/csgcc/bin/../lib/gcc/mips-sde-elf/4.3.2/../../../../mips-sde-elf/lib/el/sof\libc.a(lib_a-putc.o)
 .mdebug.abi32  0x0000000000000000        0x0 d:/csgcc/bin/../lib/gcc/mips-sde-elf/4.3.2/../../../../mips-sde-elf/lib/el/sof\libc.a(lib_a-realloc.o)
 .mdebug.abi32  0x0000000000000000        0x0 d:/csgcc/bin/../lib/gcc/mips-sde-elf/4.3.2/../../../../mips-sde-elf/lib/el/sof\libc.a(lib_a-reallocr.o)
 .mdebug.abi32  0x0000000000000000        0x0 d:/csgcc/bin/../lib/gcc/mips-sde-elf/4.3.2/../../../../mips-sde-elf/lib/el/sof\libc.a(lib_a-sbrkr.o)
 .mdebug.abi32  0x0000000000000000        0x0 d:/csgcc/bin/../lib/gcc/mips-sde-elf/4.3.2/../../../../mips-sde-elf/lib/el/sof\libc.a(lib_a-signal.o)
 .mdebug.abi32  0x0000000000000000        0x0 d:/csgcc/bin/../lib/gcc/mips-sde-elf/4.3.2/../../../../mips-sde-elf/lib/el/sof\libc.a(lib_a-signalr.o)
 .mdebug.abi32  0x0000000000000000        0x0 d:/csgcc/bin/../lib/gcc/mips-sde-elf/4.3.2/../../../../mips-sde-elf/lib/el/sof\libc.a(lib_a-strcmp.o)
 .mdebug.abi32  0x0000000000000000        0x0 d:/csgcc/bin/../lib/gcc/mips-sde-elf/4.3.2/../../../../mips-sde-elf/lib/el/sof\libc.a(lib_a-strcpy.o)
 .mdebug.abi32  0x0000000000000000        0x0 d:/csgcc/bin/../lib/gcc/mips-sde-elf/4.3.2/../../../../mips-sde-elf/lib/el/sof\libc.a(lib_a-strlen.o)
 .mdebug.abi32  0x0000000000000000        0x0 d:/csgcc/bin/../lib/gcc/mips-sde-elf/4.3.2/../../../../mips-sde-elf/lib/el/sof\libc.a(lib_a-strncmp.o)
 .mdebug.abi32  0x0000000000000000        0x0 d:/csgcc/bin/../lib/gcc/mips-sde-elf/4.3.2/../../../../mips-sde-elf/lib/el/sof\libc.a(lib_a-tzvars.o)
 .mdebug.abi32  0x0000000000000000        0x0 d:/csgcc/bin/../lib/gcc/mips-sde-elf/4.3.2/../../../../mips-sde-elf/lib/el/sof\libc.a(lib_a-vfprintf.o)
 .mdebug.abi32  0x0000000000000000        0x0 d:/csgcc/bin/../lib/gcc/mips-sde-elf/4.3.2/../../../../mips-sde-elf/lib/el/sof\libc.a(lib_a-wbuf.o)
 .mdebug.abi32  0x0000000000000000        0x0 d:/csgcc/bin/../lib/gcc/mips-sde-elf/4.3.2/../../../../mips-sde-elf/lib/el/sof\libc.a(lib_a-wsetup.o)
 .mdebug.abi32  0x0000000000000000        0x0 d:/csgcc/bin/../lib/gcc/mips-sde-elf/4.3.2/../../../../mips-sde-elf/lib/el/sof\libc.a(lib_a-asctime.o)
 .mdebug.abi32  0x0000000000000000        0x0 d:/csgcc/bin/../lib/gcc/mips-sde-elf/4.3.2/../../../../mips-sde-elf/lib/el/sof\libc.a(lib_a-asctime_r.o)
 .mdebug.abi32  0x0000000000000000        0x0 d:/csgcc/bin/../lib/gcc/mips-sde-elf/4.3.2/../../../../mips-sde-elf/lib/el/sof\libc.a(lib_a-dtoa.o)
 .mdebug.abi32  0x0000000000000000        0x0 d:/csgcc/bin/../lib/gcc/mips-sde-elf/4.3.2/../../../../mips-sde-elf/lib/el/sof\libc.a(lib_a-fflush.o)
 .mdebug.abi32  0x0000000000000000        0x0 d:/csgcc/bin/../lib/gcc/mips-sde-elf/4.3.2/../../../../mips-sde-elf/lib/el/sof\libc.a(lib_a-findfp.o)
 .mdebug.abi32  0x0000000000000000        0x0 d:/csgcc/bin/../lib/gcc/mips-sde-elf/4.3.2/../../../../mips-sde-elf/lib/el/sof\libc.a(lib_a-freer.o)
 .mdebug.abi32  0x0000000000000000        0x0 d:/csgcc/bin/../lib/gcc/mips-sde-elf/4.3.2/../../../../mips-sde-elf/lib/el/sof\libc.a(lib_a-fwalk.o)
 .mdebug.abi32  0x0000000000000000        0x0 d:/csgcc/bin/../lib/gcc/mips-sde-elf/4.3.2/../../../../mips-sde-elf/lib/el/sof\libc.a(lib_a-gettzinfo.o)
 .mdebug.abi32  0x0000000000000000        0x0 d:/csgcc/bin/../lib/gcc/mips-sde-elf/4.3.2/../../../../mips-sde-elf/lib/el/sof\libc.a(lib_a-locale.o)
 .mdebug.abi32  0x0000000000000000        0x0 d:/csgcc/bin/../lib/gcc/mips-sde-elf/4.3.2/../../../../mips-sde-elf/lib/el/sof\libc.a(lib_a-makebuf.o)
 .mdebug.abi32  0x0000000000000000        0x0 d:/csgcc/bin/../lib/gcc/mips-sde-elf/4.3.2/../../../../mips-sde-elf/lib/el/sof\libc.a(lib_a-mprec.o)
 .mdebug.abi32  0x0000000000000000        0x0 d:/csgcc/bin/../lib/gcc/mips-sde-elf/4.3.2/../../../../mips-sde-elf/lib/el/sof\libc.a(lib_a-reent.o)
 .mdebug.abi32  0x0000000000000000        0x0 d:/csgcc/bin/../lib/gcc/mips-sde-elf/4.3.2/../../../../mips-sde-elf/lib/el/sof\libc.a(lib_a-s_isinfd.o)
 .mdebug.abi32  0x0000000000000000        0x0 d:/csgcc/bin/../lib/gcc/mips-sde-elf/4.3.2/../../../../mips-sde-elf/lib/el/sof\libc.a(lib_a-s_isnand.o)
 .mdebug.abi32  0x0000000000000000        0x0 d:/csgcc/bin/../lib/gcc/mips-sde-elf/4.3.2/../../../../mips-sde-elf/lib/el/sof\libc.a(lib_a-sprintf.o)
 .mdebug.abi32  0x0000000000000000        0x0 d:/csgcc/bin/../lib/gcc/mips-sde-elf/4.3.2/../../../../mips-sde-elf/lib/el/sof\libc.a(lib_a-stdio.o)
 .mdebug.abi32  0x0000000000000000        0x0 d:/csgcc/bin/../lib/gcc/mips-sde-elf/4.3.2/../../../../mips-sde-elf/lib/el/sof\libc.a(lib_a-writer.o)
 .mdebug.abi32  0x0000000000000000        0x0 d:/csgcc/bin/../lib/gcc/mips-sde-elf/4.3.2/../../../../mips-sde-elf/lib/el/sof\libc.a(lib_a-callocr.o)
 .mdebug.abi32  0x0000000000000000        0x0 d:/csgcc/bin/../lib/gcc/mips-sde-elf/4.3.2/../../../../mips-sde-elf/lib/el/sof\libc.a(lib_a-closer.o)
 .mdebug.abi32  0x0000000000000000        0x0 d:/csgcc/bin/../lib/gcc/mips-sde-elf/4.3.2/../../../../mips-sde-elf/lib/el/sof\libc.a(lib_a-fclose.o)
 .mdebug.abi32  0x0000000000000000        0x0 d:/csgcc/bin/../lib/gcc/mips-sde-elf/4.3.2/../../../../mips-sde-elf/lib/el/sof\libc.a(lib_a-fstatr.o)
 .mdebug.abi32  0x0000000000000000        0x0 d:/csgcc/bin/../lib/gcc/mips-sde-elf/4.3.2/../../../../mips-sde-elf/lib/el/sof\libc.a(lib_a-isattyr.o)
 .mdebug.abi32  0x0000000000000000        0x0 d:/csgcc/bin/../lib/gcc/mips-sde-elf/4.3.2/../../../../mips-sde-elf/lib/el/sof\libc.a(lib_a-lseekr.o)
 .mdebug.abi32  0x0000000000000000        0x0 d:/csgcc/bin/../lib/gcc/mips-sde-elf/4.3.2/../../../../mips-sde-elf/lib/el/sof\libc.a(lib_a-readr.o)
 .mdebug.abi32  0x0000000000000000        0x0 d:/csgcc/bin/../lib/gcc/mips-sde-elf/4.3.2/../../../../mips-sde-elf/lib/el/sof\libcs3.a(start_c.o)
 .mdebug.abi32  0x0000000000000000        0x0 d:/csgcc/bin/../lib/gcc/mips-sde-elf/4.3.2/../../../../mips-sde-elf/lib/el/sof\libcs3unhosted.a(unhosted-_exit.o)
 .mdebug.abi32  0x0000000000000000        0x0 d:/csgcc/bin/../lib/gcc/mips-sde-elf/4.3.2/../../../../mips-sde-elf/lib/el/sof\libcs3unhosted.a(unhosted-close.o)
 .mdebug.abi32  0x0000000000000000        0x0 d:/csgcc/bin/../lib/gcc/mips-sde-elf/4.3.2/../../../../mips-sde-elf/lib/el/sof\libcs3unhosted.a(unhosted-fstat.o)
 .mdebug.abi32  0x0000000000000000        0x0 d:/csgcc/bin/../lib/gcc/mips-sde-elf/4.3.2/../../../../mips-sde-elf/lib/el/sof\libcs3unhosted.a(unhosted-isatty.o)
 .mdebug.abi32  0x0000000000000000        0x0 d:/csgcc/bin/../lib/gcc/mips-sde-elf/4.3.2/../../../../mips-sde-elf/lib/el/sof\libcs3unhosted.a(unhosted-lseek.o)
 .mdebug.abi32  0x0000000000000000        0x0 d:/csgcc/bin/../lib/gcc/mips-sde-elf/4.3.2/../../../../mips-sde-elf/lib/el/sof\libcs3unhosted.a(unhosted-open.o)
 .mdebug.abi32  0x0000000000000000        0x0 d:/csgcc/bin/../lib/gcc/mips-sde-elf/4.3.2/../../../../mips-sde-elf/lib/el/sof\libcs3unhosted.a(unhosted-sbrk.o)
 .mdebug.abi32  0x0000000000000000        0x0 d:/csgcc/bin/../lib/gcc/mips-sde-elf/4.3.2/../../../../mips-sde-elf/lib/el/sof\libcs3unhosted.a(unhosted-getpid.o)
 .mdebug.abi32  0x0000000000000000        0x0 d:/csgcc/bin/../lib/gcc/mips-sde-elf/4.3.2/../../../../mips-sde-elf/lib/el/sof\libcs3unhosted.a(unhosted-kill.o)
 .mdebug.abi32  0x0000000000000000        0x0 d:/csgcc/bin/../lib/gcc/mips-sde-elf/4.3.2/el/sof\libgcc.a(_udivdi3.o)
 .mdebug.abi32  0x0000000000000000        0x0 d:/csgcc/bin/../lib/gcc/mips-sde-elf/4.3.2/el/sof\libgcc.a(_umoddi3.o)
 .mdebug.abi32  0x0000000000000000        0x0 d:/csgcc/bin/../lib/gcc/mips-sde-elf/4.3.2/el/sof\libgcc.a(_addsub_df.o)
 .mdebug.abi32  0x0000000000000000        0x0 d:/csgcc/bin/../lib/gcc/mips-sde-elf/4.3.2/el/sof\libgcc.a(_mul_df.o)
 .mdebug.abi32  0x0000000000000000        0x0 d:/csgcc/bin/../lib/gcc/mips-sde-elf/4.3.2/el/sof\libgcc.a(_div_df.o)
 .mdebug.abi32  0x0000000000000000        0x0 d:/csgcc/bin/../lib/gcc/mips-sde-elf/4.3.2/el/sof\libgcc.a(_eq_df.o)
 .mdebug.abi32  0x0000000000000000        0x0 d:/csgcc/bin/../lib/gcc/mips-sde-elf/4.3.2/el/sof\libgcc.a(_ne_df.o)
 .mdebug.abi32  0x0000000000000000        0x0 d:/csgcc/bin/../lib/gcc/mips-sde-elf/4.3.2/el/sof\libgcc.a(_gt_df.o)
 .mdebug.abi32  0x0000000000000000        0x0 d:/csgcc/bin/../lib/gcc/mips-sde-elf/4.3.2/el/sof\libgcc.a(_ge_df.o)
 .mdebug.abi32  0x0000000000000000        0x0 d:/csgcc/bin/../lib/gcc/mips-sde-elf/4.3.2/el/sof\libgcc.a(_lt_df.o)
 .mdebug.abi32  0x0000000000000000        0x0 d:/csgcc/bin/../lib/gcc/mips-sde-elf/4.3.2/el/sof\libgcc.a(_si_to_df.o)
 .mdebug.abi32  0x0000000000000000        0x0 d:/csgcc/bin/../lib/gcc/mips-sde-elf/4.3.2/el/sof\libgcc.a(_df_to_si.o)
 .mdebug.abi32  0x0000000000000000        0x0 d:/csgcc/bin/../lib/gcc/mips-sde-elf/4.3.2/el/sof\libgcc.a(_thenan_df.o)
 .mdebug.abi32  0x0000000000000000        0x0 d:/csgcc/bin/../lib/gcc/mips-sde-elf/4.3.2/el/sof\libgcc.a(_usi_to_df.o)
 .mdebug.abi32  0x0000000000000000        0x0 d:/csgcc/bin/../lib/gcc/mips-sde-elf/4.3.2/el/sof\libgcc.a(_lshrdi3.o)
 .mdebug.abi32  0x0000000000000000        0x0 d:/csgcc/bin/../lib/gcc/mips-sde-elf/4.3.2/el/sof\libgcc.a(_ashldi3.o)
 .mdebug.abi32  0x0000000000000000        0x0 d:/csgcc/bin/../lib/gcc/mips-sde-elf/4.3.2/el/sof\libgcc.a(_ucmpdi2.o)
 .mdebug.abi32  0x0000000000000000        0x0 d:/csgcc/bin/../lib/gcc/mips-sde-elf/4.3.2/el/sof\libgcc.a(_pack_df.o)
 .mdebug.abi32  0x0000000000000000        0x0 d:/csgcc/bin/../lib/gcc/mips-sde-elf/4.3.2/el/sof\libgcc.a(_unpack_df.o)
 .mdebug.abi32  0x0000000000000000        0x0 d:/csgcc/bin/../lib/gcc/mips-sde-elf/4.3.2/el/sof\libgcc.a(_fpcmp_parts_df.o)
 .mdebug.abi32  0x0000000000000000        0x0 d:/csgcc/bin/../lib/gcc/mips-sde-elf/4.3.2/../../../../mips-sde-elf/lib/el/sof\libc.a(lib_a-errno.o)
 .mdebug.abi32  0x0000000000000000        0x0 d:/csgcc/bin/../lib/gcc/mips-sde-elf/4.3.2/../../../../mips-sde-elf/lib/el/sof\libc.a(lib_a-init.o)
 .mdebug.abi32  0x0000000000000000        0x0 d:/csgcc/bin/../lib/gcc/mips-sde-elf/4.3.2/../../../../mips-sde-elf/lib/el/sof\libcs3.a(heap.o)

.gnu.attributes
                0x0000000000000000       0x10
 .gnu.attributes
                0x0000000000000000       0x10 d:/csgcc/bin/../lib/gcc/mips-sde-elf/4.3.2/el/sof/crtbegin.o
 .gnu.attributes
                0x0000000000000010       0x10 obj/pic32mx_cfg_init.o
 .gnu.attributes
                0x0000000000000020       0x10 obj/CPP_Demo.o
 .gnu.attributes
                0x0000000000000030       0x10 obj/DRN_PIC32MX_UART1.o
 .gnu.attributes
                0x0000000000000040       0x10 obj/DRN_PIC32MX_CS_glue.o
 .gnu.attributes
                0x0000000000000050       0x10 obj/PIC32MX_time.o
 .gnu.attributes
                0x0000000000000060       0x10 obj/int_enable_interrupts_lib.o
 .gnu.attributes
                0x0000000000000070       0x10 obj/int_disable_interrupts_lib.o
 .gnu.attributes
                0x0000000000000080       0x10 obj/int_restore_interrupts_lib.o
 .gnu.attributes
                0x0000000000000090       0x10 obj/pcache.o
 .gnu.attributes
                0x00000000000000a0       0x10 d:/csgcc/bin/../lib/gcc/mips-sde-elf/4.3.2/../../../../mips-sde-elf/lib/el/sof\libstdc++.a(eh_personality.o)
 .gnu.attributes
                0x00000000000000b0       0x10 d:/csgcc/bin/../lib/gcc/mips-sde-elf/4.3.2/../../../../mips-sde-elf/lib/el/sof\libstdc++.a(eh_terminate.o)
 .gnu.attributes
                0x00000000000000c0       0x10 d:/csgcc/bin/../lib/gcc/mips-sde-elf/4.3.2/../../../../mips-sde-elf/lib/el/sof\libstdc++.a(eh_throw.o)
 .gnu.attributes
                0x00000000000000d0       0x10 d:/csgcc/bin/../lib/gcc/mips-sde-elf/4.3.2/../../../../mips-sde-elf/lib/el/sof\libstdc++.a(eh_unex_handler.o)
 .gnu.attributes
                0x00000000000000e0       0x10 d:/csgcc/bin/../lib/gcc/mips-sde-elf/4.3.2/../../../../mips-sde-elf/lib/el/sof\libstdc++.a(eh_alloc.o)
 .gnu.attributes
                0x00000000000000f0       0x10 d:/csgcc/bin/../lib/gcc/mips-sde-elf/4.3.2/../../../../mips-sde-elf/lib/el/sof\libstdc++.a(eh_call.o)
 .gnu.attributes
                0x0000000000000100       0x10 d:/csgcc/bin/../lib/gcc/mips-sde-elf/4.3.2/../../../../mips-sde-elf/lib/el/sof\libstdc++.a(eh_catch.o)
 .gnu.attributes
                0x0000000000000110       0x10 d:/csgcc/bin/../lib/gcc/mips-sde-elf/4.3.2/../../../../mips-sde-elf/lib/el/sof\libstdc++.a(eh_exception.o)
 .gnu.attributes
                0x0000000000000120       0x10 d:/csgcc/bin/../lib/gcc/mips-sde-elf/4.3.2/../../../../mips-sde-elf/lib/el/sof\libstdc++.a(eh_globals.o)
 .gnu.attributes
                0x0000000000000130       0x10 d:/csgcc/bin/../lib/gcc/mips-sde-elf/4.3.2/../../../../mips-sde-elf/lib/el/sof\libstdc++.a(eh_term_handler.o)
 .gnu.attributes
                0x0000000000000140       0x10 d:/csgcc/bin/../lib/gcc/mips-sde-elf/4.3.2/../../../../mips-sde-elf/lib/el/sof\libstdc++.a(pure.o)
 .gnu.attributes
                0x0000000000000150       0x10 d:/csgcc/bin/../lib/gcc/mips-sde-elf/4.3.2/../../../../mips-sde-elf/lib/el/sof\libstdc++.a(si_class_type_info.o)
 .gnu.attributes
                0x0000000000000160       0x10 d:/csgcc/bin/../lib/gcc/mips-sde-elf/4.3.2/../../../../mips-sde-elf/lib/el/sof\libstdc++.a(tinfo.o)
 .gnu.attributes
                0x0000000000000170       0x10 d:/csgcc/bin/../lib/gcc/mips-sde-elf/4.3.2/../../../../mips-sde-elf/lib/el/sof\libstdc++.a(vterminate.o)
 .gnu.attributes
                0x0000000000000180       0x10 d:/csgcc/bin/../lib/gcc/mips-sde-elf/4.3.2/../../../../mips-sde-elf/lib/el/sof\libstdc++.a(cp-demangle.o)
 .gnu.attributes
                0x0000000000000190       0x10 d:/csgcc/bin/../lib/gcc/mips-sde-elf/4.3.2/../../../../mips-sde-elf/lib/el/sof\libstdc++.a(class_type_info.o)
 .gnu.attributes
                0x00000000000001a0       0x10 d:/csgcc/bin/../lib/gcc/mips-sde-elf/4.3.2/../../../../mips-sde-elf/lib/el/sof\libstdc++.a(del_op.o)
 .gnu.attributes
                0x00000000000001b0       0x10 d:/csgcc/bin/../lib/gcc/mips-sde-elf/4.3.2/../../../../mips-sde-elf/lib/el/sof\libstdc++.a(eh_type.o)
 .gnu.attributes
                0x00000000000001c0       0x10 d:/csgcc/bin/../lib/gcc/mips-sde-elf/4.3.2/el/sof\libgcc.a(unwind-dw2.o)
 .gnu.attributes
                0x00000000000001d0       0x10 d:/csgcc/bin/../lib/gcc/mips-sde-elf/4.3.2/el/sof\libgcc.a(unwind-dw2-fde.o)
 .gnu.attributes
                0x00000000000001e0       0x10 d:/csgcc/bin/../lib/gcc/mips-sde-elf/4.3.2/el/sof/crtend.o
 .gnu.attributes
                0x00000000000001f0       0x10 d:/csgcc/bin/../lib/gcc/mips-sde-elf/4.3.2/../../../../mips-sde-elf/lib/el/sof\libc.a(lib_a-abort.o)
 .gnu.attributes
                0x0000000000000200       0x10 d:/csgcc/bin/../lib/gcc/mips-sde-elf/4.3.2/../../../../mips-sde-elf/lib/el/sof\libc.a(lib_a-ctime.o)
 .gnu.attributes
                0x0000000000000210       0x10 d:/csgcc/bin/../lib/gcc/mips-sde-elf/4.3.2/../../../../mips-sde-elf/lib/el/sof\libc.a(lib_a-fputc.o)
 .gnu.attributes
                0x0000000000000220       0x10 d:/csgcc/bin/../lib/gcc/mips-sde-elf/4.3.2/../../../../mips-sde-elf/lib/el/sof\libc.a(lib_a-fputs.o)
 .gnu.attributes
                0x0000000000000230       0x10 d:/csgcc/bin/../lib/gcc/mips-sde-elf/4.3.2/../../../../mips-sde-elf/lib/el/sof\libc.a(lib_a-fvwrite.o)
 .gnu.attributes
                0x0000000000000240       0x10 d:/csgcc/bin/../lib/gcc/mips-sde-elf/4.3.2/../../../../mips-sde-elf/lib/el/sof\libc.a(lib_a-impure.o)
 .gnu.attributes
                0x0000000000000250       0x10 d:/csgcc/bin/../lib/gcc/mips-sde-elf/4.3.2/../../../../mips-sde-elf/lib/el/sof\libc.a(lib_a-lcltime.o)
 .gnu.attributes
                0x0000000000000260       0x10 d:/csgcc/bin/../lib/gcc/mips-sde-elf/4.3.2/../../../../mips-sde-elf/lib/el/sof\libc.a(lib_a-lcltime_r.o)
 .gnu.attributes
                0x0000000000000270       0x10 d:/csgcc/bin/../lib/gcc/mips-sde-elf/4.3.2/../../../../mips-sde-elf/lib/el/sof\libc.a(lib_a-malloc.o)
 .gnu.attributes
                0x0000000000000280       0x10 d:/csgcc/bin/../lib/gcc/mips-sde-elf/4.3.2/../../../../mips-sde-elf/lib/el/sof\libc.a(lib_a-mallocr.o)
 .gnu.attributes
                0x0000000000000290       0x10 d:/csgcc/bin/../lib/gcc/mips-sde-elf/4.3.2/../../../../mips-sde-elf/lib/el/sof\libc.a(lib_a-memchr.o)
 .gnu.attributes
                0x00000000000002a0       0x10 d:/csgcc/bin/../lib/gcc/mips-sde-elf/4.3.2/../../../../mips-sde-elf/lib/el/sof\libc.a(lib_a-memcmp.o)
 .gnu.attributes
                0x00000000000002b0       0x10 d:/csgcc/bin/../lib/gcc/mips-sde-elf/4.3.2/../../../../mips-sde-elf/lib/el/sof\libc.a(lib_a-memcpy.o)
 .gnu.attributes
                0x00000000000002c0       0x10 d:/csgcc/bin/../lib/gcc/mips-sde-elf/4.3.2/../../../../mips-sde-elf/lib/el/sof\libc.a(lib_a-memmove.o)
 .gnu.attributes
                0x00000000000002d0       0x10 d:/csgcc/bin/../lib/gcc/mips-sde-elf/4.3.2/../../../../mips-sde-elf/lib/el/sof\libc.a(lib_a-memset.o)
 .gnu.attributes
                0x00000000000002e0       0x10 d:/csgcc/bin/../lib/gcc/mips-sde-elf/4.3.2/../../../../mips-sde-elf/lib/el/sof\libc.a(lib_a-mktm_r.o)
 .gnu.attributes
                0x00000000000002f0       0x10 d:/csgcc/bin/../lib/gcc/mips-sde-elf/4.3.2/../../../../mips-sde-elf/lib/el/sof\libc.a(lib_a-mlock.o)
 .gnu.attributes
                0x0000000000000300       0x10 d:/csgcc/bin/../lib/gcc/mips-sde-elf/4.3.2/../../../../mips-sde-elf/lib/el/sof\libc.a(lib_a-printf.o)
 .gnu.attributes
                0x0000000000000310       0x10 d:/csgcc/bin/../lib/gcc/mips-sde-elf/4.3.2/../../../../mips-sde-elf/lib/el/sof\libc.a(lib_a-putc.o)
 .gnu.attributes
                0x0000000000000320       0x10 d:/csgcc/bin/../lib/gcc/mips-sde-elf/4.3.2/../../../../mips-sde-elf/lib/el/sof\libc.a(lib_a-realloc.o)
 .gnu.attributes
                0x0000000000000330       0x10 d:/csgcc/bin/../lib/gcc/mips-sde-elf/4.3.2/../../../../mips-sde-elf/lib/el/sof\libc.a(lib_a-reallocr.o)
 .gnu.attributes
                0x0000000000000340       0x10 d:/csgcc/bin/../lib/gcc/mips-sde-elf/4.3.2/../../../../mips-sde-elf/lib/el/sof\libc.a(lib_a-sbrkr.o)
 .gnu.attributes
                0x0000000000000350       0x10 d:/csgcc/bin/../lib/gcc/mips-sde-elf/4.3.2/../../../../mips-sde-elf/lib/el/sof\libc.a(lib_a-signal.o)
 .gnu.attributes
                0x0000000000000360       0x10 d:/csgcc/bin/../lib/gcc/mips-sde-elf/4.3.2/../../../../mips-sde-elf/lib/el/sof\libc.a(lib_a-signalr.o)
 .gnu.attributes
                0x0000000000000370       0x10 d:/csgcc/bin/../lib/gcc/mips-sde-elf/4.3.2/../../../../mips-sde-elf/lib/el/sof\libc.a(lib_a-strcmp.o)
 .gnu.attributes
                0x0000000000000380       0x10 d:/csgcc/bin/../lib/gcc/mips-sde-elf/4.3.2/../../../../mips-sde-elf/lib/el/sof\libc.a(lib_a-strcpy.o)
 .gnu.attributes
                0x0000000000000390       0x10 d:/csgcc/bin/../lib/gcc/mips-sde-elf/4.3.2/../../../../mips-sde-elf/lib/el/sof\libc.a(lib_a-strlen.o)
 .gnu.attributes
                0x00000000000003a0       0x10 d:/csgcc/bin/../lib/gcc/mips-sde-elf/4.3.2/../../../../mips-sde-elf/lib/el/sof\libc.a(lib_a-strncmp.o)
 .gnu.attributes
                0x00000000000003b0       0x10 d:/csgcc/bin/../lib/gcc/mips-sde-elf/4.3.2/../../../../mips-sde-elf/lib/el/sof\libc.a(lib_a-tzvars.o)
 .gnu.attributes
                0x00000000000003c0       0x10 d:/csgcc/bin/../lib/gcc/mips-sde-elf/4.3.2/../../../../mips-sde-elf/lib/el/sof\libc.a(lib_a-vfprintf.o)
 .gnu.attributes
                0x00000000000003d0       0x10 d:/csgcc/bin/../lib/gcc/mips-sde-elf/4.3.2/../../../../mips-sde-elf/lib/el/sof\libc.a(lib_a-wbuf.o)
 .gnu.attributes
                0x00000000000003e0       0x10 d:/csgcc/bin/../lib/gcc/mips-sde-elf/4.3.2/../../../../mips-sde-elf/lib/el/sof\libc.a(lib_a-wsetup.o)
 .gnu.attributes
                0x00000000000003f0       0x10 d:/csgcc/bin/../lib/gcc/mips-sde-elf/4.3.2/../../../../mips-sde-elf/lib/el/sof\libc.a(lib_a-asctime.o)
 .gnu.attributes
                0x0000000000000400       0x10 d:/csgcc/bin/../lib/gcc/mips-sde-elf/4.3.2/../../../../mips-sde-elf/lib/el/sof\libc.a(lib_a-asctime_r.o)
 .gnu.attributes
                0x0000000000000410       0x10 d:/csgcc/bin/../lib/gcc/mips-sde-elf/4.3.2/../../../../mips-sde-elf/lib/el/sof\libc.a(lib_a-dtoa.o)
 .gnu.attributes
                0x0000000000000420       0x10 d:/csgcc/bin/../lib/gcc/mips-sde-elf/4.3.2/../../../../mips-sde-elf/lib/el/sof\libc.a(lib_a-fflush.o)
 .gnu.attributes
                0x0000000000000430       0x10 d:/csgcc/bin/../lib/gcc/mips-sde-elf/4.3.2/../../../../mips-sde-elf/lib/el/sof\libc.a(lib_a-findfp.o)
 .gnu.attributes
                0x0000000000000440       0x10 d:/csgcc/bin/../lib/gcc/mips-sde-elf/4.3.2/../../../../mips-sde-elf/lib/el/sof\libc.a(lib_a-freer.o)
 .gnu.attributes
                0x0000000000000450       0x10 d:/csgcc/bin/../lib/gcc/mips-sde-elf/4.3.2/../../../../mips-sde-elf/lib/el/sof\libc.a(lib_a-fwalk.o)
 .gnu.attributes
                0x0000000000000460       0x10 d:/csgcc/bin/../lib/gcc/mips-sde-elf/4.3.2/../../../../mips-sde-elf/lib/el/sof\libc.a(lib_a-gettzinfo.o)
 .gnu.attributes
                0x0000000000000470       0x10 d:/csgcc/bin/../lib/gcc/mips-sde-elf/4.3.2/../../../../mips-sde-elf/lib/el/sof\libc.a(lib_a-locale.o)
 .gnu.attributes
                0x0000000000000480       0x10 d:/csgcc/bin/../lib/gcc/mips-sde-elf/4.3.2/../../../../mips-sde-elf/lib/el/sof\libc.a(lib_a-makebuf.o)
 .gnu.attributes
                0x0000000000000490       0x10 d:/csgcc/bin/../lib/gcc/mips-sde-elf/4.3.2/../../../../mips-sde-elf/lib/el/sof\libc.a(lib_a-mprec.o)
 .gnu.attributes
                0x00000000000004a0       0x10 d:/csgcc/bin/../lib/gcc/mips-sde-elf/4.3.2/../../../../mips-sde-elf/lib/el/sof\libc.a(lib_a-reent.o)
 .gnu.attributes
                0x00000000000004b0       0x10 d:/csgcc/bin/../lib/gcc/mips-sde-elf/4.3.2/../../../../mips-sde-elf/lib/el/sof\libc.a(lib_a-s_isinfd.o)
 .gnu.attributes
                0x00000000000004c0       0x10 d:/csgcc/bin/../lib/gcc/mips-sde-elf/4.3.2/../../../../mips-sde-elf/lib/el/sof\libc.a(lib_a-s_isnand.o)
 .gnu.attributes
                0x00000000000004d0       0x10 d:/csgcc/bin/../lib/gcc/mips-sde-elf/4.3.2/../../../../mips-sde-elf/lib/el/sof\libc.a(lib_a-sprintf.o)
 .gnu.attributes
                0x00000000000004e0       0x10 d:/csgcc/bin/../lib/gcc/mips-sde-elf/4.3.2/../../../../mips-sde-elf/lib/el/sof\libc.a(lib_a-stdio.o)
 .gnu.attributes
                0x00000000000004f0       0x10 d:/csgcc/bin/../lib/gcc/mips-sde-elf/4.3.2/../../../../mips-sde-elf/lib/el/sof\libc.a(lib_a-writer.o)
 .gnu.attributes
                0x0000000000000500       0x10 d:/csgcc/bin/../lib/gcc/mips-sde-elf/4.3.2/../../../../mips-sde-elf/lib/el/sof\libc.a(lib_a-callocr.o)
 .gnu.attributes
                0x0000000000000510       0x10 d:/csgcc/bin/../lib/gcc/mips-sde-elf/4.3.2/../../../../mips-sde-elf/lib/el/sof\libc.a(lib_a-closer.o)
 .gnu.attributes
                0x0000000000000520       0x10 d:/csgcc/bin/../lib/gcc/mips-sde-elf/4.3.2/../../../../mips-sde-elf/lib/el/sof\libc.a(lib_a-fclose.o)
 .gnu.attributes
                0x0000000000000530       0x10 d:/csgcc/bin/../lib/gcc/mips-sde-elf/4.3.2/../../../../mips-sde-elf/lib/el/sof\libc.a(lib_a-fstatr.o)
 .gnu.attributes
                0x0000000000000540       0x10 d:/csgcc/bin/../lib/gcc/mips-sde-elf/4.3.2/../../../../mips-sde-elf/lib/el/sof\libc.a(lib_a-isattyr.o)
 .gnu.attributes
                0x0000000000000550       0x10 d:/csgcc/bin/../lib/gcc/mips-sde-elf/4.3.2/../../../../mips-sde-elf/lib/el/sof\libc.a(lib_a-lseekr.o)
 .gnu.attributes
                0x0000000000000560       0x10 d:/csgcc/bin/../lib/gcc/mips-sde-elf/4.3.2/../../../../mips-sde-elf/lib/el/sof\libc.a(lib_a-readr.o)
 .gnu.attributes
                0x0000000000000570       0x10 d:/csgcc/bin/../lib/gcc/mips-sde-elf/4.3.2/../../../../mips-sde-elf/lib/el/sof\libcs3.a(start_c.o)
 .gnu.attributes
                0x0000000000000580       0x10 d:/csgcc/bin/../lib/gcc/mips-sde-elf/4.3.2/../../../../mips-sde-elf/lib/el/sof\libcs3unhosted.a(unhosted-_exit.o)
 .gnu.attributes
                0x0000000000000590       0x10 d:/csgcc/bin/../lib/gcc/mips-sde-elf/4.3.2/../../../../mips-sde-elf/lib/el/sof\libcs3unhosted.a(unhosted-close.o)
 .gnu.attributes
                0x00000000000005a0       0x10 d:/csgcc/bin/../lib/gcc/mips-sde-elf/4.3.2/../../../../mips-sde-elf/lib/el/sof\libcs3unhosted.a(unhosted-fstat.o)
 .gnu.attributes
                0x00000000000005b0       0x10 d:/csgcc/bin/../lib/gcc/mips-sde-elf/4.3.2/../../../../mips-sde-elf/lib/el/sof\libcs3unhosted.a(unhosted-isatty.o)
 .gnu.attributes
                0x00000000000005c0       0x10 d:/csgcc/bin/../lib/gcc/mips-sde-elf/4.3.2/../../../../mips-sde-elf/lib/el/sof\libcs3unhosted.a(unhosted-lseek.o)
 .gnu.attributes
                0x00000000000005d0       0x10 d:/csgcc/bin/../lib/gcc/mips-sde-elf/4.3.2/../../../../mips-sde-elf/lib/el/sof\libcs3unhosted.a(unhosted-open.o)
 .gnu.attributes
                0x00000000000005e0       0x10 d:/csgcc/bin/../lib/gcc/mips-sde-elf/4.3.2/../../../../mips-sde-elf/lib/el/sof\libcs3unhosted.a(unhosted-sbrk.o)
 .gnu.attributes
                0x00000000000005f0       0x10 d:/csgcc/bin/../lib/gcc/mips-sde-elf/4.3.2/../../../../mips-sde-elf/lib/el/sof\libcs3unhosted.a(unhosted-getpid.o)
 .gnu.attributes
                0x0000000000000600       0x10 d:/csgcc/bin/../lib/gcc/mips-sde-elf/4.3.2/../../../../mips-sde-elf/lib/el/sof\libcs3unhosted.a(unhosted-kill.o)
 .gnu.attributes
                0x0000000000000610       0x10 d:/csgcc/bin/../lib/gcc/mips-sde-elf/4.3.2/el/sof\libgcc.a(_udivdi3.o)
 .gnu.attributes
                0x0000000000000620       0x10 d:/csgcc/bin/../lib/gcc/mips-sde-elf/4.3.2/el/sof\libgcc.a(_umoddi3.o)
 .gnu.attributes
                0x0000000000000630       0x10 d:/csgcc/bin/../lib/gcc/mips-sde-elf/4.3.2/el/sof\libgcc.a(_addsub_df.o)
 .gnu.attributes
                0x0000000000000640       0x10 d:/csgcc/bin/../lib/gcc/mips-sde-elf/4.3.2/el/sof\libgcc.a(_mul_df.o)
 .gnu.attributes
                0x0000000000000650       0x10 d:/csgcc/bin/../lib/gcc/mips-sde-elf/4.3.2/el/sof\libgcc.a(_div_df.o)
 .gnu.attributes
                0x0000000000000660       0x10 d:/csgcc/bin/../lib/gcc/mips-sde-elf/4.3.2/el/sof\libgcc.a(_eq_df.o)
 .gnu.attributes
                0x0000000000000670       0x10 d:/csgcc/bin/../lib/gcc/mips-sde-elf/4.3.2/el/sof\libgcc.a(_ne_df.o)
 .gnu.attributes
                0x0000000000000680       0x10 d:/csgcc/bin/../lib/gcc/mips-sde-elf/4.3.2/el/sof\libgcc.a(_gt_df.o)
 .gnu.attributes
                0x0000000000000690       0x10 d:/csgcc/bin/../lib/gcc/mips-sde-elf/4.3.2/el/sof\libgcc.a(_ge_df.o)
 .gnu.attributes
                0x00000000000006a0       0x10 d:/csgcc/bin/../lib/gcc/mips-sde-elf/4.3.2/el/sof\libgcc.a(_lt_df.o)
 .gnu.attributes
                0x00000000000006b0       0x10 d:/csgcc/bin/../lib/gcc/mips-sde-elf/4.3.2/el/sof\libgcc.a(_si_to_df.o)
 .gnu.attributes
                0x00000000000006c0       0x10 d:/csgcc/bin/../lib/gcc/mips-sde-elf/4.3.2/el/sof\libgcc.a(_df_to_si.o)
 .gnu.attributes
                0x00000000000006d0       0x10 d:/csgcc/bin/../lib/gcc/mips-sde-elf/4.3.2/el/sof\libgcc.a(_thenan_df.o)
 .gnu.attributes
                0x00000000000006e0       0x10 d:/csgcc/bin/../lib/gcc/mips-sde-elf/4.3.2/el/sof\libgcc.a(_usi_to_df.o)
 .gnu.attributes
                0x00000000000006f0       0x10 d:/csgcc/bin/../lib/gcc/mips-sde-elf/4.3.2/el/sof\libgcc.a(_lshrdi3.o)
 .gnu.attributes
                0x0000000000000700       0x10 d:/csgcc/bin/../lib/gcc/mips-sde-elf/4.3.2/el/sof\libgcc.a(_ashldi3.o)
 .gnu.attributes
                0x0000000000000710       0x10 d:/csgcc/bin/../lib/gcc/mips-sde-elf/4.3.2/el/sof\libgcc.a(_ucmpdi2.o)
 .gnu.attributes
                0x0000000000000720       0x10 d:/csgcc/bin/../lib/gcc/mips-sde-elf/4.3.2/el/sof\libgcc.a(_pack_df.o)
 .gnu.attributes
                0x0000000000000730       0x10 d:/csgcc/bin/../lib/gcc/mips-sde-elf/4.3.2/el/sof\libgcc.a(_unpack_df.o)
 .gnu.attributes
                0x0000000000000740       0x10 d:/csgcc/bin/../lib/gcc/mips-sde-elf/4.3.2/el/sof\libgcc.a(_fpcmp_parts_df.o)
 .gnu.attributes
                0x0000000000000750       0x10 d:/csgcc/bin/../lib/gcc/mips-sde-elf/4.3.2/../../../../mips-sde-elf/lib/el/sof\libc.a(lib_a-errno.o)
 .gnu.attributes
                0x0000000000000760       0x10 d:/csgcc/bin/../lib/gcc/mips-sde-elf/4.3.2/../../../../mips-sde-elf/lib/el/sof\libc.a(lib_a-init.o)
 .gnu.attributes
                0x0000000000000770       0x10 d:/csgcc/bin/../lib/gcc/mips-sde-elf/4.3.2/../../../../mips-sde-elf/lib/el/sof\libcs3.a(heap.o)

.comment        0x0000000000000000      0x132
 .comment       0x0000000000000000       0x22 obj/pic32mx_cfg_init.o
 .comment       0x0000000000000022       0x22 obj/CPP_Demo.o
 .comment       0x0000000000000044       0x22 obj/DRN_PIC32MX_UART1.o
 .comment       0x0000000000000066       0x22 obj/DRN_PIC32MX_CS_glue.o
 .comment       0x0000000000000088       0x22 obj/PIC32MX_time.o
 .comment       0x00000000000000aa       0x22 obj/int_enable_interrupts_lib.o
 .comment       0x00000000000000cc       0x22 obj/int_disable_interrupts_lib.o
 .comment       0x00000000000000ee       0x22 obj/int_restore_interrupts_lib.o
 .comment       0x0000000000000110       0x22 obj/pcache.o
